

Microchip MPLAB XC8 Assembler V3.10 build 20250813170317 
                                                                                               Tue Mar 10 09:02:46 2026

Microchip MPLAB XC8 C Compiler v3.10 (Free license) build 20250813170317 Og1 
     1                           	processor	18F4580
     2                           	fnconf	rparam,??,?,0
     3                           	pagewidth 120
     4                           	opt	flic
     5                           	psect	idataCOMRAM,global,class=CODE,space=0,delta=1,noexec
     6                           	psect	cinit,global,reloc=2,class=CODE,space=0,delta=1
     7                           	psect	bssCOMRAM,global,class=COMRAM,space=1,delta=1,lowdata,noexec
     8                           	psect	dataCOMRAM,global,class=COMRAM,space=1,delta=1,lowdata,noexec
     9                           	psect	cstackCOMRAM,global,class=COMRAM,space=1,delta=1,lowdata,noexec
    10                           	psect	text0,global,reloc=2,class=CODE,space=0,delta=1
    11                           	psect	text1,global,reloc=2,class=CODE,space=0,delta=1
    12                           	psect	text2,global,reloc=2,class=CODE,space=0,delta=1
    13                           	psect	text3,global,reloc=2,class=CODE,space=0,delta=1
    14                           	psect	text4,global,reloc=2,class=CODE,space=0,delta=1
    15                           	psect	text5,global,reloc=2,class=CODE,space=0,delta=1
    16                           	psect	text6,global,reloc=2,class=CODE,space=0,delta=1
    17                           	psect	text7,global,reloc=2,class=CODE,space=0,delta=1,group=1
    18                           	psect	text8,global,reloc=2,class=CODE,space=0,delta=1,group=1
    19                           	psect	text9,global,reloc=2,class=CODE,space=0,delta=1,group=1
    20                           	psect	text10,global,reloc=2,class=CODE,space=0,delta=1
    21                           	psect	text11,global,reloc=2,class=CODE,space=0,delta=1
    22                           	psect	text12,global,reloc=2,class=CODE,space=0,delta=1
    23                           	psect	text13,global,reloc=2,class=CODE,space=0,delta=1
    24                           	psect	text14,global,reloc=2,class=CODE,space=0,delta=1
    25                           	psect	smallconst,global,reloc=2,class=SMALLCONST,space=0,delta=1,noexec
    26                           	psect	intsave_regs,global,class=BIGRAM,space=1,delta=1,noexec
    27                           	psect	rparam,global,class=COMRAM,space=1,delta=1,noexec
    28   000000                     
    29                           ; Generated 17/10/2023 GMT
    30                           ; 
    31                           ; Copyright © 2023, Microchip Technology Inc. and its subsidiaries ("Microchip")
    32                           ; All rights reserved.
    33                           ; 
    34                           ; This software is developed by Microchip Technology Inc. and its subsidiaries ("Microch
      +                          ip").
    35                           ; 
    36                           ; Redistribution and use in source and binary forms, with or without modification, are
    37                           ; permitted provided that the following conditions are met:
    38                           ; 
    39                           ;     1. Redistributions of source code must retain the above copyright notice, this lis
      +                          t of
    40                           ;        conditions and the following disclaimer.
    41                           ; 
    42                           ;     2. Redistributions in binary form must reproduce the above copyright notice, this 
      +                          list
    43                           ;        of conditions and the following disclaimer in the documentation and/or other
    44                           ;        materials provided with the distribution. Publication is not required when
    45                           ;        this file is used in an embedded application.
    46                           ; 
    47                           ;     3. Microchip's name may not be used to endorse or promote products derived from th
      +                          is
    48                           ;        software without specific prior written permission.
    49                           ; 
    50                           ; THIS SOFTWARE IS PROVIDED BY MICROCHIP "AS IS" AND ANY EXPRESS OR IMPLIED WARRANTIES,
    51                           ; INCLUDING, BUT NOT LIMITED TO, THE IMPLIED WARRANTIES OF MERCHANTABILITY AND FITNESS F
      +                          OR
    52                           ; PURPOSE ARE DISCLAIMED.  IN NO EVENT SHALL MICROCHIP BE LIABLE FOR ANY DIRECT, INDIREC
      +                          T,
    53                           ; INCIDENTAL, SPECIAL, EXEMPLARY, OR CONSEQUENTIAL DAMAGES (INCLUDING BUT NOT LIMITED TO
    54                           ; PROCUREMENT OF SUBSTITUTE GOODS OR SERVICES; LOSS OF USE, DATA OR PROFITS; OR BUSINESS
    55                           ; INTERRUPTION) HOWSOEVER CAUSED AND ON ANY THEORY OF LIABILITY, WHETHER IN CONTRACT, ST
      +                          RICT
    56                           ; LIABILITY, OR TORT (INCLUDING NEGLIGENCE OR OTHERWISE) ARISING IN ANY WAY OUT OF THE U
      +                          SE OF
    57                           ; THIS SOFTWARE, EVEN IF ADVISED OF THE POSSIBILITY OF SUCH DAMAGE.
    58                           ; 
    59                           ; 
    60                           ; Code-generator required, PIC18F4580 Definitions
    61                           ; 
    62                           ; SFR Addresses
    63   000FE0                     bsr             equ	4064
    64   000FE9                     fsr0            equ	4073
    65   000FEA                     fsr0h           equ	4074
    66   000FE9                     fsr0l           equ	4073
    67   000FE1                     fsr1            equ	4065
    68   000FE2                     fsr1h           equ	4066
    69   000FE1                     fsr1l           equ	4065
    70   000FD9                     fsr2            equ	4057
    71   000FDA                     fsr2h           equ	4058
    72   000FD9                     fsr2l           equ	4057
    73   000FEF                     indf0           equ	4079
    74   000FE7                     indf1           equ	4071
    75   000FDF                     indf2           equ	4063
    76   000FF2                     intcon          equ	4082
    77   000000                     nvmcon          equ	0
    78   000FF9                     pcl             equ	4089
    79   000FFA                     pclath          equ	4090
    80   000FFB                     pclatu          equ	4091
    81   000FEB                     plusw0          equ	4075
    82   000FE3                     plusw1          equ	4067
    83   000FDB                     plusw2          equ	4059
    84   000FED                     postdec0        equ	4077
    85   000FE5                     postdec1        equ	4069
    86   000FDD                     postdec2        equ	4061
    87   000FEE                     postinc0        equ	4078
    88   000FE6                     postinc1        equ	4070
    89   000FDE                     postinc2        equ	4062
    90   000FEC                     preinc0         equ	4076
    91   000FE4                     preinc1         equ	4068
    92   000FDC                     preinc2         equ	4060
    93   000FF3                     prod            equ	4083
    94   000FF4                     prodh           equ	4084
    95   000FF3                     prodl           equ	4083
    96   000FD8                     status          equ	4056
    97   000FF5                     tablat          equ	4085
    98   000FF6                     tblptr          equ	4086
    99   000FF7                     tblptrh         equ	4087
   100   000FF6                     tblptrl         equ	4086
   101   000FF8                     tblptru         equ	4088
   102   000FFD                     tosl            equ	4093
   103   000FE8                     wreg            equ	4072
   104   000D60                     RXF6SIDH        equ	3424	;# 
   105   000D61                     RXF6SIDL        equ	3425	;# 
   106   000D62                     RXF6EIDH        equ	3426	;# 
   107   000D63                     RXF6EIDL        equ	3427	;# 
   108   000D64                     RXF7SIDH        equ	3428	;# 
   109   000D65                     RXF7SIDL        equ	3429	;# 
   110   000D66                     RXF7EIDH        equ	3430	;# 
   111   000D67                     RXF7EIDL        equ	3431	;# 
   112   000D68                     RXF8SIDH        equ	3432	;# 
   113   000D69                     RXF8SIDL        equ	3433	;# 
   114   000D6A                     RXF8EIDH        equ	3434	;# 
   115   000D6B                     RXF8EIDL        equ	3435	;# 
   116   000D70                     RXF9SIDH        equ	3440	;# 
   117   000D71                     RXF9SIDL        equ	3441	;# 
   118   000D72                     RXF9EIDH        equ	3442	;# 
   119   000D73                     RXF9EIDL        equ	3443	;# 
   120   000D74                     RXF10SIDH       equ	3444	;# 
   121   000D75                     RXF10SIDL       equ	3445	;# 
   122   000D76                     RXF10EIDH       equ	3446	;# 
   123   000D77                     RXF10EIDL       equ	3447	;# 
   124   000D78                     RXF11SIDH       equ	3448	;# 
   125   000D79                     RXF11SIDL       equ	3449	;# 
   126   000D7A                     RXF11EIDH       equ	3450	;# 
   127   000D7B                     RXF11EIDL       equ	3451	;# 
   128   000D80                     RXF12SIDH       equ	3456	;# 
   129   000D81                     RXF12SIDL       equ	3457	;# 
   130   000D82                     RXF12EIDH       equ	3458	;# 
   131   000D83                     RXF12EIDL       equ	3459	;# 
   132   000D84                     RXF13SIDH       equ	3460	;# 
   133   000D85                     RXF13SIDL       equ	3461	;# 
   134   000D86                     RXF13EIDH       equ	3462	;# 
   135   000D87                     RXF13EIDL       equ	3463	;# 
   136   000D88                     RXF14SIDH       equ	3464	;# 
   137   000D89                     RXF14SIDL       equ	3465	;# 
   138   000D8A                     RXF14EIDH       equ	3466	;# 
   139   000D8B                     RXF14EIDL       equ	3467	;# 
   140   000D90                     RXF15SIDH       equ	3472	;# 
   141   000D91                     RXF15SIDL       equ	3473	;# 
   142   000D92                     RXF15EIDH       equ	3474	;# 
   143   000D93                     RXF15EIDL       equ	3475	;# 
   144   000DD4                     RXFCON0         equ	3540	;# 
   145   000DD5                     RXFCON1         equ	3541	;# 
   146   000DD8                     SDFLC           equ	3544	;# 
   147   000DE0                     RXFBCON0        equ	3552	;# 
   148   000DE1                     RXFBCON1        equ	3553	;# 
   149   000DE2                     RXFBCON2        equ	3554	;# 
   150   000DE3                     RXFBCON3        equ	3555	;# 
   151   000DE4                     RXFBCON4        equ	3556	;# 
   152   000DE5                     RXFBCON5        equ	3557	;# 
   153   000DE6                     RXFBCON6        equ	3558	;# 
   154   000DE7                     RXFBCON7        equ	3559	;# 
   155   000DF0                     MSEL0           equ	3568	;# 
   156   000DF1                     MSEL1           equ	3569	;# 
   157   000DF2                     MSEL2           equ	3570	;# 
   158   000DF3                     MSEL3           equ	3571	;# 
   159   000DF8                     BSEL0           equ	3576	;# 
   160   000DFA                     BIE0            equ	3578	;# 
   161   000DFC                     TXBIE           equ	3580	;# 
   162   000E20                     B0CON           equ	3616	;# 
   163   000E21                     B0SIDH          equ	3617	;# 
   164   000E22                     B0SIDL          equ	3618	;# 
   165   000E23                     B0EIDH          equ	3619	;# 
   166   000E24                     B0EIDL          equ	3620	;# 
   167   000E25                     B0DLC           equ	3621	;# 
   168   000E26                     B0D0            equ	3622	;# 
   169   000E27                     B0D1            equ	3623	;# 
   170   000E28                     B0D2            equ	3624	;# 
   171   000E29                     B0D3            equ	3625	;# 
   172   000E2A                     B0D4            equ	3626	;# 
   173   000E2B                     B0D5            equ	3627	;# 
   174   000E2C                     B0D6            equ	3628	;# 
   175   000E2D                     B0D7            equ	3629	;# 
   176   000E2E                     CANSTAT_RO9     equ	3630	;# 
   177   000E2F                     CANCON_RO9      equ	3631	;# 
   178   000E30                     B1CON           equ	3632	;# 
   179   000E31                     B1SIDH          equ	3633	;# 
   180   000E32                     B1SIDL          equ	3634	;# 
   181   000E33                     B1EIDH          equ	3635	;# 
   182   000E34                     B1EIDL          equ	3636	;# 
   183   000E35                     B1DLC           equ	3637	;# 
   184   000E36                     B1D0            equ	3638	;# 
   185   000E37                     B1D1            equ	3639	;# 
   186   000E38                     B1D2            equ	3640	;# 
   187   000E39                     B1D3            equ	3641	;# 
   188   000E3A                     B1D4            equ	3642	;# 
   189   000E3B                     B1D5            equ	3643	;# 
   190   000E3C                     B1D6            equ	3644	;# 
   191   000E3D                     B1D7            equ	3645	;# 
   192   000E3E                     CANSTAT_RO8     equ	3646	;# 
   193   000E3F                     CANCON_RO8      equ	3647	;# 
   194   000E40                     B2CON           equ	3648	;# 
   195   000E41                     B2SIDH          equ	3649	;# 
   196   000E42                     B2SIDL          equ	3650	;# 
   197   000E43                     B2EIDH          equ	3651	;# 
   198   000E44                     B2EIDL          equ	3652	;# 
   199   000E45                     B2DLC           equ	3653	;# 
   200   000E46                     B2D0            equ	3654	;# 
   201   000E47                     B2D1            equ	3655	;# 
   202   000E48                     B2D2            equ	3656	;# 
   203   000E49                     B2D3            equ	3657	;# 
   204   000E4A                     B2D4            equ	3658	;# 
   205   000E4B                     B2D5            equ	3659	;# 
   206   000E4C                     B2D6            equ	3660	;# 
   207   000E4D                     B2D7            equ	3661	;# 
   208   000E4E                     CANSTAT_RO7     equ	3662	;# 
   209   000E4F                     CANCON_RO7      equ	3663	;# 
   210   000E50                     B3CON           equ	3664	;# 
   211   000E51                     B3SIDH          equ	3665	;# 
   212   000E52                     B3SIDL          equ	3666	;# 
   213   000E53                     B3EIDH          equ	3667	;# 
   214   000E54                     B3EIDL          equ	3668	;# 
   215   000E55                     B3DLC           equ	3669	;# 
   216   000E56                     B3D0            equ	3670	;# 
   217   000E57                     B3D1            equ	3671	;# 
   218   000E58                     B3D2            equ	3672	;# 
   219   000E59                     B3D3            equ	3673	;# 
   220   000E5A                     B3D4            equ	3674	;# 
   221   000E5B                     B3D5            equ	3675	;# 
   222   000E5C                     B3D6            equ	3676	;# 
   223   000E5D                     B3D7            equ	3677	;# 
   224   000E5E                     CANSTAT_RO6     equ	3678	;# 
   225   000E5F                     CANCON_RO6      equ	3679	;# 
   226   000E60                     B4CON           equ	3680	;# 
   227   000E61                     B4SIDH          equ	3681	;# 
   228   000E62                     B4SIDL          equ	3682	;# 
   229   000E63                     B4EIDH          equ	3683	;# 
   230   000E64                     B4EIDL          equ	3684	;# 
   231   000E65                     B4DLC           equ	3685	;# 
   232   000E66                     B4D0            equ	3686	;# 
   233   000E67                     B4D1            equ	3687	;# 
   234   000E68                     B4D2            equ	3688	;# 
   235   000E69                     B4D3            equ	3689	;# 
   236   000E6A                     B4D4            equ	3690	;# 
   237   000E6B                     B4D5            equ	3691	;# 
   238   000E6C                     B4D6            equ	3692	;# 
   239   000E6D                     B4D7            equ	3693	;# 
   240   000E6E                     CANSTAT_RO5     equ	3694	;# 
   241   000E6F                     CANCON_RO5      equ	3695	;# 
   242   000E70                     B5CON           equ	3696	;# 
   243   000E71                     B5SIDH          equ	3697	;# 
   244   000E72                     B5SIDL          equ	3698	;# 
   245   000E73                     B5EIDH          equ	3699	;# 
   246   000E74                     B5EIDL          equ	3700	;# 
   247   000E75                     B5DLC           equ	3701	;# 
   248   000E76                     B5D0            equ	3702	;# 
   249   000E77                     B5D1            equ	3703	;# 
   250   000E78                     B5D2            equ	3704	;# 
   251   000E79                     B5D3            equ	3705	;# 
   252   000E7A                     B5D4            equ	3706	;# 
   253   000E7B                     B5D5            equ	3707	;# 
   254   000E7C                     B5D6            equ	3708	;# 
   255   000E7D                     B5D7            equ	3709	;# 
   256   000E7E                     CANSTAT_RO4     equ	3710	;# 
   257   000E7F                     CANCON_RO4      equ	3711	;# 
   258   000F00                     RXF0SIDH        equ	3840	;# 
   259   000F01                     RXF0SIDL        equ	3841	;# 
   260   000F02                     RXF0EIDH        equ	3842	;# 
   261   000F03                     RXF0EIDL        equ	3843	;# 
   262   000F04                     RXF1SIDH        equ	3844	;# 
   263   000F05                     RXF1SIDL        equ	3845	;# 
   264   000F06                     RXF1EIDH        equ	3846	;# 
   265   000F07                     RXF1EIDL        equ	3847	;# 
   266   000F08                     RXF2SIDH        equ	3848	;# 
   267   000F09                     RXF2SIDL        equ	3849	;# 
   268   000F0A                     RXF2EIDH        equ	3850	;# 
   269   000F0B                     RXF2EIDL        equ	3851	;# 
   270   000F0C                     RXF3SIDH        equ	3852	;# 
   271   000F0D                     RXF3SIDL        equ	3853	;# 
   272   000F0E                     RXF3EIDH        equ	3854	;# 
   273   000F0F                     RXF3EIDL        equ	3855	;# 
   274   000F10                     RXF4SIDH        equ	3856	;# 
   275   000F11                     RXF4SIDL        equ	3857	;# 
   276   000F12                     RXF4EIDH        equ	3858	;# 
   277   000F13                     RXF4EIDL        equ	3859	;# 
   278   000F14                     RXF5SIDH        equ	3860	;# 
   279   000F15                     RXF5SIDL        equ	3861	;# 
   280   000F16                     RXF5EIDH        equ	3862	;# 
   281   000F17                     RXF5EIDL        equ	3863	;# 
   282   000F18                     RXM0SIDH        equ	3864	;# 
   283   000F19                     RXM0SIDL        equ	3865	;# 
   284   000F1A                     RXM0EIDH        equ	3866	;# 
   285   000F1B                     RXM0EIDL        equ	3867	;# 
   286   000F1C                     RXM1SIDH        equ	3868	;# 
   287   000F1D                     RXM1SIDL        equ	3869	;# 
   288   000F1E                     RXM1EIDH        equ	3870	;# 
   289   000F1F                     RXM1EIDL        equ	3871	;# 
   290   000F20                     TXB2CON         equ	3872	;# 
   291   000F21                     TXB2SIDH        equ	3873	;# 
   292   000F22                     TXB2SIDL        equ	3874	;# 
   293   000F23                     TXB2EIDH        equ	3875	;# 
   294   000F24                     TXB2EIDL        equ	3876	;# 
   295   000F25                     TXB2DLC         equ	3877	;# 
   296   000F26                     TXB2D0          equ	3878	;# 
   297   000F27                     TXB2D1          equ	3879	;# 
   298   000F28                     TXB2D2          equ	3880	;# 
   299   000F29                     TXB2D3          equ	3881	;# 
   300   000F2A                     TXB2D4          equ	3882	;# 
   301   000F2B                     TXB2D5          equ	3883	;# 
   302   000F2C                     TXB2D6          equ	3884	;# 
   303   000F2D                     TXB2D7          equ	3885	;# 
   304   000F2E                     CANSTAT_RO3     equ	3886	;# 
   305   000F2F                     CANCON_RO3      equ	3887	;# 
   306   000F30                     TXB1CON         equ	3888	;# 
   307   000F31                     TXB1SIDH        equ	3889	;# 
   308   000F32                     TXB1SIDL        equ	3890	;# 
   309   000F33                     TXB1EIDH        equ	3891	;# 
   310   000F34                     TXB1EIDL        equ	3892	;# 
   311   000F35                     TXB1DLC         equ	3893	;# 
   312   000F36                     TXB1D0          equ	3894	;# 
   313   000F37                     TXB1D1          equ	3895	;# 
   314   000F38                     TXB1D2          equ	3896	;# 
   315   000F39                     TXB1D3          equ	3897	;# 
   316   000F3A                     TXB1D4          equ	3898	;# 
   317   000F3B                     TXB1D5          equ	3899	;# 
   318   000F3C                     TXB1D6          equ	3900	;# 
   319   000F3D                     TXB1D7          equ	3901	;# 
   320   000F3E                     CANSTAT_RO2     equ	3902	;# 
   321   000F3F                     CANCON_RO2      equ	3903	;# 
   322   000F40                     TXB0CON         equ	3904	;# 
   323   000F41                     TXB0SIDH        equ	3905	;# 
   324   000F42                     TXB0SIDL        equ	3906	;# 
   325   000F43                     TXB0EIDH        equ	3907	;# 
   326   000F44                     TXB0EIDL        equ	3908	;# 
   327   000F45                     TXB0DLC         equ	3909	;# 
   328   000F46                     TXB0D0          equ	3910	;# 
   329   000F47                     TXB0D1          equ	3911	;# 
   330   000F48                     TXB0D2          equ	3912	;# 
   331   000F49                     TXB0D3          equ	3913	;# 
   332   000F4A                     TXB0D4          equ	3914	;# 
   333   000F4B                     TXB0D5          equ	3915	;# 
   334   000F4C                     TXB0D6          equ	3916	;# 
   335   000F4D                     TXB0D7          equ	3917	;# 
   336   000F4E                     CANSTAT_RO1     equ	3918	;# 
   337   000F4F                     CANCON_RO1      equ	3919	;# 
   338   000F50                     RXB1CON         equ	3920	;# 
   339   000F51                     RXB1SIDH        equ	3921	;# 
   340   000F52                     RXB1SIDL        equ	3922	;# 
   341   000F53                     RXB1EIDH        equ	3923	;# 
   342   000F54                     RXB1EIDL        equ	3924	;# 
   343   000F55                     RXB1DLC         equ	3925	;# 
   344   000F56                     RXB1D0          equ	3926	;# 
   345   000F57                     RXB1D1          equ	3927	;# 
   346   000F58                     RXB1D2          equ	3928	;# 
   347   000F59                     RXB1D3          equ	3929	;# 
   348   000F5A                     RXB1D4          equ	3930	;# 
   349   000F5B                     RXB1D5          equ	3931	;# 
   350   000F5C                     RXB1D6          equ	3932	;# 
   351   000F5D                     RXB1D7          equ	3933	;# 
   352   000F5E                     CANSTAT_RO0     equ	3934	;# 
   353   000F5F                     CANCON_RO0      equ	3935	;# 
   354   000F60                     RXB0CON         equ	3936	;# 
   355   000F61                     RXB0SIDH        equ	3937	;# 
   356   000F62                     RXB0SIDL        equ	3938	;# 
   357   000F63                     RXB0EIDH        equ	3939	;# 
   358   000F64                     RXB0EIDL        equ	3940	;# 
   359   000F65                     RXB0DLC         equ	3941	;# 
   360   000F66                     RXB0D0          equ	3942	;# 
   361   000F67                     RXB0D1          equ	3943	;# 
   362   000F68                     RXB0D2          equ	3944	;# 
   363   000F69                     RXB0D3          equ	3945	;# 
   364   000F6A                     RXB0D4          equ	3946	;# 
   365   000F6B                     RXB0D5          equ	3947	;# 
   366   000F6C                     RXB0D6          equ	3948	;# 
   367   000F6D                     RXB0D7          equ	3949	;# 
   368   000F6E                     CANSTAT         equ	3950	;# 
   369   000F6F                     CANCON          equ	3951	;# 
   370   000F70                     BRGCON1         equ	3952	;# 
   371   000F71                     BRGCON2         equ	3953	;# 
   372   000F72                     BRGCON3         equ	3954	;# 
   373   000F73                     CIOCON          equ	3955	;# 
   374   000F74                     COMSTAT         equ	3956	;# 
   375   000F75                     RXERRCNT        equ	3957	;# 
   376   000F76                     TXERRCNT        equ	3958	;# 
   377   000F77                     ECANCON         equ	3959	;# 
   378   000F80                     PORTA           equ	3968	;# 
   379   000F81                     PORTB           equ	3969	;# 
   380   000F82                     PORTC           equ	3970	;# 
   381   000F83                     PORTD           equ	3971	;# 
   382   000F84                     PORTE           equ	3972	;# 
   383   000F89                     LATA            equ	3977	;# 
   384   000F8A                     LATB            equ	3978	;# 
   385   000F8B                     LATC            equ	3979	;# 
   386   000F8C                     LATD            equ	3980	;# 
   387   000F8D                     LATE            equ	3981	;# 
   388   000F92                     TRISA           equ	3986	;# 
   389   000F92                     DDRA            equ	3986	;# 
   390   000F93                     TRISB           equ	3987	;# 
   391   000F93                     DDRB            equ	3987	;# 
   392   000F94                     TRISC           equ	3988	;# 
   393   000F94                     DDRC            equ	3988	;# 
   394   000F95                     TRISD           equ	3989	;# 
   395   000F95                     DDRD            equ	3989	;# 
   396   000F96                     TRISE           equ	3990	;# 
   397   000F96                     DDRE            equ	3990	;# 
   398   000F9B                     OSCTUNE         equ	3995	;# 
   399   000F9D                     PIE1            equ	3997	;# 
   400   000F9E                     PIR1            equ	3998	;# 
   401   000F9F                     IPR1            equ	3999	;# 
   402   000FA0                     PIE2            equ	4000	;# 
   403   000FA1                     PIR2            equ	4001	;# 
   404   000FA2                     IPR2            equ	4002	;# 
   405   000FA3                     PIE3            equ	4003	;# 
   406   000FA4                     PIR3            equ	4004	;# 
   407   000FA5                     IPR3            equ	4005	;# 
   408   000FA6                     EECON1          equ	4006	;# 
   409   000FA7                     EECON2          equ	4007	;# 
   410   000FA8                     EEDATA          equ	4008	;# 
   411   000FA9                     EEADR           equ	4009	;# 
   412   000FAB                     RCSTA           equ	4011	;# 
   413   000FAB                     RCSTA1          equ	4011	;# 
   414   000FAC                     TXSTA           equ	4012	;# 
   415   000FAC                     TXSTA1          equ	4012	;# 
   416   000FAD                     TXREG           equ	4013	;# 
   417   000FAD                     TXREG1          equ	4013	;# 
   418   000FAE                     RCREG           equ	4014	;# 
   419   000FAE                     RCREG1          equ	4014	;# 
   420   000FAF                     SPBRG           equ	4015	;# 
   421   000FAF                     SPBRG1          equ	4015	;# 
   422   000FB0                     SPBRGH          equ	4016	;# 
   423   000FB1                     T3CON           equ	4017	;# 
   424   000FB2                     TMR3            equ	4018	;# 
   425   000FB2                     TMR3L           equ	4018	;# 
   426   000FB3                     TMR3H           equ	4019	;# 
   427   000FB4                     CMCON           equ	4020	;# 
   428   000FB5                     CVRCON          equ	4021	;# 
   429   000FB6                     ECCP1AS         equ	4022	;# 
   430   000FB7                     ECCP1DEL        equ	4023	;# 
   431   000FB8                     BAUDCON         equ	4024	;# 
   432   000FB8                     BAUDCTL         equ	4024	;# 
   433   000FBA                     ECCP1CON        equ	4026	;# 
   434   000FBB                     ECCPR1          equ	4027	;# 
   435   000FBB                     ECCPR1L         equ	4027	;# 
   436   000FBC                     ECCPR1H         equ	4028	;# 
   437   000FBD                     CCP1CON         equ	4029	;# 
   438   000FBE                     CCPR1           equ	4030	;# 
   439   000FBE                     CCPR1L          equ	4030	;# 
   440   000FBF                     CCPR1H          equ	4031	;# 
   441   000FC0                     ADCON2          equ	4032	;# 
   442   000FC1                     ADCON1          equ	4033	;# 
   443   000FC2                     ADCON0          equ	4034	;# 
   444   000FC3                     ADRES           equ	4035	;# 
   445   000FC3                     ADRESL          equ	4035	;# 
   446   000FC4                     ADRESH          equ	4036	;# 
   447   000FC5                     SSPCON2         equ	4037	;# 
   448   000FC6                     SSPCON1         equ	4038	;# 
   449   000FC7                     SSPSTAT         equ	4039	;# 
   450   000FC8                     SSPADD          equ	4040	;# 
   451   000FC9                     SSPBUF          equ	4041	;# 
   452   000FCA                     T2CON           equ	4042	;# 
   453   000FCB                     PR2             equ	4043	;# 
   454   000FCB                     MEMCON          equ	4043	;# 
   455   000FCC                     TMR2            equ	4044	;# 
   456   000FCD                     T1CON           equ	4045	;# 
   457   000FCE                     TMR1            equ	4046	;# 
   458   000FCE                     TMR1L           equ	4046	;# 
   459   000FCF                     TMR1H           equ	4047	;# 
   460   000FD0                     RCON            equ	4048	;# 
   461   000FD1                     WDTCON          equ	4049	;# 
   462   000FD2                     HLVDCON         equ	4050	;# 
   463   000FD2                     LVDCON          equ	4050	;# 
   464   000FD3                     OSCCON          equ	4051	;# 
   465   000FD5                     T0CON           equ	4053	;# 
   466   000FD6                     TMR0            equ	4054	;# 
   467   000FD6                     TMR0L           equ	4054	;# 
   468   000FD7                     TMR0H           equ	4055	;# 
   469   000FD8                     STATUS          equ	4056	;# 
   470   000FD9                     FSR2            equ	4057	;# 
   471   000FD9                     FSR2L           equ	4057	;# 
   472   000FDA                     FSR2H           equ	4058	;# 
   473   000FDB                     PLUSW2          equ	4059	;# 
   474   000FDC                     PREINC2         equ	4060	;# 
   475   000FDD                     POSTDEC2        equ	4061	;# 
   476   000FDE                     POSTINC2        equ	4062	;# 
   477   000FDF                     INDF2           equ	4063	;# 
   478   000FE0                     BSR             equ	4064	;# 
   479   000FE1                     FSR1            equ	4065	;# 
   480   000FE1                     FSR1L           equ	4065	;# 
   481   000FE2                     FSR1H           equ	4066	;# 
   482   000FE3                     PLUSW1          equ	4067	;# 
   483   000FE4                     PREINC1         equ	4068	;# 
   484   000FE5                     POSTDEC1        equ	4069	;# 
   485   000FE6                     POSTINC1        equ	4070	;# 
   486   000FE7                     INDF1           equ	4071	;# 
   487   000FE8                     WREG            equ	4072	;# 
   488   000FE9                     FSR0            equ	4073	;# 
   489   000FE9                     FSR0L           equ	4073	;# 
   490   000FEA                     FSR0H           equ	4074	;# 
   491   000FEB                     PLUSW0          equ	4075	;# 
   492   000FEC                     PREINC0         equ	4076	;# 
   493   000FED                     POSTDEC0        equ	4077	;# 
   494   000FEE                     POSTINC0        equ	4078	;# 
   495   000FEF                     INDF0           equ	4079	;# 
   496   000FF0                     INTCON3         equ	4080	;# 
   497   000FF1                     INTCON2         equ	4081	;# 
   498   000FF2                     INTCON          equ	4082	;# 
   499   000FF3                     PROD            equ	4083	;# 
   500   000FF3                     PRODL           equ	4083	;# 
   501   000FF4                     PRODH           equ	4084	;# 
   502   000FF5                     TABLAT          equ	4085	;# 
   503   000FF6                     TBLPTR          equ	4086	;# 
   504   000FF6                     TBLPTRL         equ	4086	;# 
   505   000FF7                     TBLPTRH         equ	4087	;# 
   506   000FF8                     TBLPTRU         equ	4088	;# 
   507   000FF9                     PCLAT           equ	4089	;# 
   508   000FF9                     PC              equ	4089	;# 
   509   000FF9                     PCL             equ	4089	;# 
   510   000FFA                     PCLATH          equ	4090	;# 
   511   000FFB                     PCLATU          equ	4091	;# 
   512   000FFC                     STKPTR          equ	4092	;# 
   513   000FFD                     TOS             equ	4093	;# 
   514   000FFD                     TOSL            equ	4093	;# 
   515   000FFE                     TOSH            equ	4094	;# 
   516   000FFF                     TOSU            equ	4095	;# 
   517   000D60                     RXF6SIDH        equ	3424	;# 
   518   000D61                     RXF6SIDL        equ	3425	;# 
   519   000D62                     RXF6EIDH        equ	3426	;# 
   520   000D63                     RXF6EIDL        equ	3427	;# 
   521   000D64                     RXF7SIDH        equ	3428	;# 
   522   000D65                     RXF7SIDL        equ	3429	;# 
   523   000D66                     RXF7EIDH        equ	3430	;# 
   524   000D67                     RXF7EIDL        equ	3431	;# 
   525   000D68                     RXF8SIDH        equ	3432	;# 
   526   000D69                     RXF8SIDL        equ	3433	;# 
   527   000D6A                     RXF8EIDH        equ	3434	;# 
   528   000D6B                     RXF8EIDL        equ	3435	;# 
   529   000D70                     RXF9SIDH        equ	3440	;# 
   530   000D71                     RXF9SIDL        equ	3441	;# 
   531   000D72                     RXF9EIDH        equ	3442	;# 
   532   000D73                     RXF9EIDL        equ	3443	;# 
   533   000D74                     RXF10SIDH       equ	3444	;# 
   534   000D75                     RXF10SIDL       equ	3445	;# 
   535   000D76                     RXF10EIDH       equ	3446	;# 
   536   000D77                     RXF10EIDL       equ	3447	;# 
   537   000D78                     RXF11SIDH       equ	3448	;# 
   538   000D79                     RXF11SIDL       equ	3449	;# 
   539   000D7A                     RXF11EIDH       equ	3450	;# 
   540   000D7B                     RXF11EIDL       equ	3451	;# 
   541   000D80                     RXF12SIDH       equ	3456	;# 
   542   000D81                     RXF12SIDL       equ	3457	;# 
   543   000D82                     RXF12EIDH       equ	3458	;# 
   544   000D83                     RXF12EIDL       equ	3459	;# 
   545   000D84                     RXF13SIDH       equ	3460	;# 
   546   000D85                     RXF13SIDL       equ	3461	;# 
   547   000D86                     RXF13EIDH       equ	3462	;# 
   548   000D87                     RXF13EIDL       equ	3463	;# 
   549   000D88                     RXF14SIDH       equ	3464	;# 
   550   000D89                     RXF14SIDL       equ	3465	;# 
   551   000D8A                     RXF14EIDH       equ	3466	;# 
   552   000D8B                     RXF14EIDL       equ	3467	;# 
   553   000D90                     RXF15SIDH       equ	3472	;# 
   554   000D91                     RXF15SIDL       equ	3473	;# 
   555   000D92                     RXF15EIDH       equ	3474	;# 
   556   000D93                     RXF15EIDL       equ	3475	;# 
   557   000DD4                     RXFCON0         equ	3540	;# 
   558   000DD5                     RXFCON1         equ	3541	;# 
   559   000DD8                     SDFLC           equ	3544	;# 
   560   000DE0                     RXFBCON0        equ	3552	;# 
   561   000DE1                     RXFBCON1        equ	3553	;# 
   562   000DE2                     RXFBCON2        equ	3554	;# 
   563   000DE3                     RXFBCON3        equ	3555	;# 
   564   000DE4                     RXFBCON4        equ	3556	;# 
   565   000DE5                     RXFBCON5        equ	3557	;# 
   566   000DE6                     RXFBCON6        equ	3558	;# 
   567   000DE7                     RXFBCON7        equ	3559	;# 
   568   000DF0                     MSEL0           equ	3568	;# 
   569   000DF1                     MSEL1           equ	3569	;# 
   570   000DF2                     MSEL2           equ	3570	;# 
   571   000DF3                     MSEL3           equ	3571	;# 
   572   000DF8                     BSEL0           equ	3576	;# 
   573   000DFA                     BIE0            equ	3578	;# 
   574   000DFC                     TXBIE           equ	3580	;# 
   575   000E20                     B0CON           equ	3616	;# 
   576   000E21                     B0SIDH          equ	3617	;# 
   577   000E22                     B0SIDL          equ	3618	;# 
   578   000E23                     B0EIDH          equ	3619	;# 
   579   000E24                     B0EIDL          equ	3620	;# 
   580   000E25                     B0DLC           equ	3621	;# 
   581   000E26                     B0D0            equ	3622	;# 
   582   000E27                     B0D1            equ	3623	;# 
   583   000E28                     B0D2            equ	3624	;# 
   584   000E29                     B0D3            equ	3625	;# 
   585   000E2A                     B0D4            equ	3626	;# 
   586   000E2B                     B0D5            equ	3627	;# 
   587   000E2C                     B0D6            equ	3628	;# 
   588   000E2D                     B0D7            equ	3629	;# 
   589   000E2E                     CANSTAT_RO9     equ	3630	;# 
   590   000E2F                     CANCON_RO9      equ	3631	;# 
   591   000E30                     B1CON           equ	3632	;# 
   592   000E31                     B1SIDH          equ	3633	;# 
   593   000E32                     B1SIDL          equ	3634	;# 
   594   000E33                     B1EIDH          equ	3635	;# 
   595   000E34                     B1EIDL          equ	3636	;# 
   596   000E35                     B1DLC           equ	3637	;# 
   597   000E36                     B1D0            equ	3638	;# 
   598   000E37                     B1D1            equ	3639	;# 
   599   000E38                     B1D2            equ	3640	;# 
   600   000E39                     B1D3            equ	3641	;# 
   601   000E3A                     B1D4            equ	3642	;# 
   602   000E3B                     B1D5            equ	3643	;# 
   603   000E3C                     B1D6            equ	3644	;# 
   604   000E3D                     B1D7            equ	3645	;# 
   605   000E3E                     CANSTAT_RO8     equ	3646	;# 
   606   000E3F                     CANCON_RO8      equ	3647	;# 
   607   000E40                     B2CON           equ	3648	;# 
   608   000E41                     B2SIDH          equ	3649	;# 
   609   000E42                     B2SIDL          equ	3650	;# 
   610   000E43                     B2EIDH          equ	3651	;# 
   611   000E44                     B2EIDL          equ	3652	;# 
   612   000E45                     B2DLC           equ	3653	;# 
   613   000E46                     B2D0            equ	3654	;# 
   614   000E47                     B2D1            equ	3655	;# 
   615   000E48                     B2D2            equ	3656	;# 
   616   000E49                     B2D3            equ	3657	;# 
   617   000E4A                     B2D4            equ	3658	;# 
   618   000E4B                     B2D5            equ	3659	;# 
   619   000E4C                     B2D6            equ	3660	;# 
   620   000E4D                     B2D7            equ	3661	;# 
   621   000E4E                     CANSTAT_RO7     equ	3662	;# 
   622   000E4F                     CANCON_RO7      equ	3663	;# 
   623   000E50                     B3CON           equ	3664	;# 
   624   000E51                     B3SIDH          equ	3665	;# 
   625   000E52                     B3SIDL          equ	3666	;# 
   626   000E53                     B3EIDH          equ	3667	;# 
   627   000E54                     B3EIDL          equ	3668	;# 
   628   000E55                     B3DLC           equ	3669	;# 
   629   000E56                     B3D0            equ	3670	;# 
   630   000E57                     B3D1            equ	3671	;# 
   631   000E58                     B3D2            equ	3672	;# 
   632   000E59                     B3D3            equ	3673	;# 
   633   000E5A                     B3D4            equ	3674	;# 
   634   000E5B                     B3D5            equ	3675	;# 
   635   000E5C                     B3D6            equ	3676	;# 
   636   000E5D                     B3D7            equ	3677	;# 
   637   000E5E                     CANSTAT_RO6     equ	3678	;# 
   638   000E5F                     CANCON_RO6      equ	3679	;# 
   639   000E60                     B4CON           equ	3680	;# 
   640   000E61                     B4SIDH          equ	3681	;# 
   641   000E62                     B4SIDL          equ	3682	;# 
   642   000E63                     B4EIDH          equ	3683	;# 
   643   000E64                     B4EIDL          equ	3684	;# 
   644   000E65                     B4DLC           equ	3685	;# 
   645   000E66                     B4D0            equ	3686	;# 
   646   000E67                     B4D1            equ	3687	;# 
   647   000E68                     B4D2            equ	3688	;# 
   648   000E69                     B4D3            equ	3689	;# 
   649   000E6A                     B4D4            equ	3690	;# 
   650   000E6B                     B4D5            equ	3691	;# 
   651   000E6C                     B4D6            equ	3692	;# 
   652   000E6D                     B4D7            equ	3693	;# 
   653   000E6E                     CANSTAT_RO5     equ	3694	;# 
   654   000E6F                     CANCON_RO5      equ	3695	;# 
   655   000E70                     B5CON           equ	3696	;# 
   656   000E71                     B5SIDH          equ	3697	;# 
   657   000E72                     B5SIDL          equ	3698	;# 
   658   000E73                     B5EIDH          equ	3699	;# 
   659   000E74                     B5EIDL          equ	3700	;# 
   660   000E75                     B5DLC           equ	3701	;# 
   661   000E76                     B5D0            equ	3702	;# 
   662   000E77                     B5D1            equ	3703	;# 
   663   000E78                     B5D2            equ	3704	;# 
   664   000E79                     B5D3            equ	3705	;# 
   665   000E7A                     B5D4            equ	3706	;# 
   666   000E7B                     B5D5            equ	3707	;# 
   667   000E7C                     B5D6            equ	3708	;# 
   668   000E7D                     B5D7            equ	3709	;# 
   669   000E7E                     CANSTAT_RO4     equ	3710	;# 
   670   000E7F                     CANCON_RO4      equ	3711	;# 
   671   000F00                     RXF0SIDH        equ	3840	;# 
   672   000F01                     RXF0SIDL        equ	3841	;# 
   673   000F02                     RXF0EIDH        equ	3842	;# 
   674   000F03                     RXF0EIDL        equ	3843	;# 
   675   000F04                     RXF1SIDH        equ	3844	;# 
   676   000F05                     RXF1SIDL        equ	3845	;# 
   677   000F06                     RXF1EIDH        equ	3846	;# 
   678   000F07                     RXF1EIDL        equ	3847	;# 
   679   000F08                     RXF2SIDH        equ	3848	;# 
   680   000F09                     RXF2SIDL        equ	3849	;# 
   681   000F0A                     RXF2EIDH        equ	3850	;# 
   682   000F0B                     RXF2EIDL        equ	3851	;# 
   683   000F0C                     RXF3SIDH        equ	3852	;# 
   684   000F0D                     RXF3SIDL        equ	3853	;# 
   685   000F0E                     RXF3EIDH        equ	3854	;# 
   686   000F0F                     RXF3EIDL        equ	3855	;# 
   687   000F10                     RXF4SIDH        equ	3856	;# 
   688   000F11                     RXF4SIDL        equ	3857	;# 
   689   000F12                     RXF4EIDH        equ	3858	;# 
   690   000F13                     RXF4EIDL        equ	3859	;# 
   691   000F14                     RXF5SIDH        equ	3860	;# 
   692   000F15                     RXF5SIDL        equ	3861	;# 
   693   000F16                     RXF5EIDH        equ	3862	;# 
   694   000F17                     RXF5EIDL        equ	3863	;# 
   695   000F18                     RXM0SIDH        equ	3864	;# 
   696   000F19                     RXM0SIDL        equ	3865	;# 
   697   000F1A                     RXM0EIDH        equ	3866	;# 
   698   000F1B                     RXM0EIDL        equ	3867	;# 
   699   000F1C                     RXM1SIDH        equ	3868	;# 
   700   000F1D                     RXM1SIDL        equ	3869	;# 
   701   000F1E                     RXM1EIDH        equ	3870	;# 
   702   000F1F                     RXM1EIDL        equ	3871	;# 
   703   000F20                     TXB2CON         equ	3872	;# 
   704   000F21                     TXB2SIDH        equ	3873	;# 
   705   000F22                     TXB2SIDL        equ	3874	;# 
   706   000F23                     TXB2EIDH        equ	3875	;# 
   707   000F24                     TXB2EIDL        equ	3876	;# 
   708   000F25                     TXB2DLC         equ	3877	;# 
   709   000F26                     TXB2D0          equ	3878	;# 
   710   000F27                     TXB2D1          equ	3879	;# 
   711   000F28                     TXB2D2          equ	3880	;# 
   712   000F29                     TXB2D3          equ	3881	;# 
   713   000F2A                     TXB2D4          equ	3882	;# 
   714   000F2B                     TXB2D5          equ	3883	;# 
   715   000F2C                     TXB2D6          equ	3884	;# 
   716   000F2D                     TXB2D7          equ	3885	;# 
   717   000F2E                     CANSTAT_RO3     equ	3886	;# 
   718   000F2F                     CANCON_RO3      equ	3887	;# 
   719   000F30                     TXB1CON         equ	3888	;# 
   720   000F31                     TXB1SIDH        equ	3889	;# 
   721   000F32                     TXB1SIDL        equ	3890	;# 
   722   000F33                     TXB1EIDH        equ	3891	;# 
   723   000F34                     TXB1EIDL        equ	3892	;# 
   724   000F35                     TXB1DLC         equ	3893	;# 
   725   000F36                     TXB1D0          equ	3894	;# 
   726   000F37                     TXB1D1          equ	3895	;# 
   727   000F38                     TXB1D2          equ	3896	;# 
   728   000F39                     TXB1D3          equ	3897	;# 
   729   000F3A                     TXB1D4          equ	3898	;# 
   730   000F3B                     TXB1D5          equ	3899	;# 
   731   000F3C                     TXB1D6          equ	3900	;# 
   732   000F3D                     TXB1D7          equ	3901	;# 
   733   000F3E                     CANSTAT_RO2     equ	3902	;# 
   734   000F3F                     CANCON_RO2      equ	3903	;# 
   735   000F40                     TXB0CON         equ	3904	;# 
   736   000F41                     TXB0SIDH        equ	3905	;# 
   737   000F42                     TXB0SIDL        equ	3906	;# 
   738   000F43                     TXB0EIDH        equ	3907	;# 
   739   000F44                     TXB0EIDL        equ	3908	;# 
   740   000F45                     TXB0DLC         equ	3909	;# 
   741   000F46                     TXB0D0          equ	3910	;# 
   742   000F47                     TXB0D1          equ	3911	;# 
   743   000F48                     TXB0D2          equ	3912	;# 
   744   000F49                     TXB0D3          equ	3913	;# 
   745   000F4A                     TXB0D4          equ	3914	;# 
   746   000F4B                     TXB0D5          equ	3915	;# 
   747   000F4C                     TXB0D6          equ	3916	;# 
   748   000F4D                     TXB0D7          equ	3917	;# 
   749   000F4E                     CANSTAT_RO1     equ	3918	;# 
   750   000F4F                     CANCON_RO1      equ	3919	;# 
   751   000F50                     RXB1CON         equ	3920	;# 
   752   000F51                     RXB1SIDH        equ	3921	;# 
   753   000F52                     RXB1SIDL        equ	3922	;# 
   754   000F53                     RXB1EIDH        equ	3923	;# 
   755   000F54                     RXB1EIDL        equ	3924	;# 
   756   000F55                     RXB1DLC         equ	3925	;# 
   757   000F56                     RXB1D0          equ	3926	;# 
   758   000F57                     RXB1D1          equ	3927	;# 
   759   000F58                     RXB1D2          equ	3928	;# 
   760   000F59                     RXB1D3          equ	3929	;# 
   761   000F5A                     RXB1D4          equ	3930	;# 
   762   000F5B                     RXB1D5          equ	3931	;# 
   763   000F5C                     RXB1D6          equ	3932	;# 
   764   000F5D                     RXB1D7          equ	3933	;# 
   765   000F5E                     CANSTAT_RO0     equ	3934	;# 
   766   000F5F                     CANCON_RO0      equ	3935	;# 
   767   000F60                     RXB0CON         equ	3936	;# 
   768   000F61                     RXB0SIDH        equ	3937	;# 
   769   000F62                     RXB0SIDL        equ	3938	;# 
   770   000F63                     RXB0EIDH        equ	3939	;# 
   771   000F64                     RXB0EIDL        equ	3940	;# 
   772   000F65                     RXB0DLC         equ	3941	;# 
   773   000F66                     RXB0D0          equ	3942	;# 
   774   000F67                     RXB0D1          equ	3943	;# 
   775   000F68                     RXB0D2          equ	3944	;# 
   776   000F69                     RXB0D3          equ	3945	;# 
   777   000F6A                     RXB0D4          equ	3946	;# 
   778   000F6B                     RXB0D5          equ	3947	;# 
   779   000F6C                     RXB0D6          equ	3948	;# 
   780   000F6D                     RXB0D7          equ	3949	;# 
   781   000F6E                     CANSTAT         equ	3950	;# 
   782   000F6F                     CANCON          equ	3951	;# 
   783   000F70                     BRGCON1         equ	3952	;# 
   784   000F71                     BRGCON2         equ	3953	;# 
   785   000F72                     BRGCON3         equ	3954	;# 
   786   000F73                     CIOCON          equ	3955	;# 
   787   000F74                     COMSTAT         equ	3956	;# 
   788   000F75                     RXERRCNT        equ	3957	;# 
   789   000F76                     TXERRCNT        equ	3958	;# 
   790   000F77                     ECANCON         equ	3959	;# 
   791   000F80                     PORTA           equ	3968	;# 
   792   000F81                     PORTB           equ	3969	;# 
   793   000F82                     PORTC           equ	3970	;# 
   794   000F83                     PORTD           equ	3971	;# 
   795   000F84                     PORTE           equ	3972	;# 
   796   000F89                     LATA            equ	3977	;# 
   797   000F8A                     LATB            equ	3978	;# 
   798   000F8B                     LATC            equ	3979	;# 
   799   000F8C                     LATD            equ	3980	;# 
   800   000F8D                     LATE            equ	3981	;# 
   801   000F92                     TRISA           equ	3986	;# 
   802   000F92                     DDRA            equ	3986	;# 
   803   000F93                     TRISB           equ	3987	;# 
   804   000F93                     DDRB            equ	3987	;# 
   805   000F94                     TRISC           equ	3988	;# 
   806   000F94                     DDRC            equ	3988	;# 
   807   000F95                     TRISD           equ	3989	;# 
   808   000F95                     DDRD            equ	3989	;# 
   809   000F96                     TRISE           equ	3990	;# 
   810   000F96                     DDRE            equ	3990	;# 
   811   000F9B                     OSCTUNE         equ	3995	;# 
   812   000F9D                     PIE1            equ	3997	;# 
   813   000F9E                     PIR1            equ	3998	;# 
   814   000F9F                     IPR1            equ	3999	;# 
   815   000FA0                     PIE2            equ	4000	;# 
   816   000FA1                     PIR2            equ	4001	;# 
   817   000FA2                     IPR2            equ	4002	;# 
   818   000FA3                     PIE3            equ	4003	;# 
   819   000FA4                     PIR3            equ	4004	;# 
   820   000FA5                     IPR3            equ	4005	;# 
   821   000FA6                     EECON1          equ	4006	;# 
   822   000FA7                     EECON2          equ	4007	;# 
   823   000FA8                     EEDATA          equ	4008	;# 
   824   000FA9                     EEADR           equ	4009	;# 
   825   000FAB                     RCSTA           equ	4011	;# 
   826   000FAB                     RCSTA1          equ	4011	;# 
   827   000FAC                     TXSTA           equ	4012	;# 
   828   000FAC                     TXSTA1          equ	4012	;# 
   829   000FAD                     TXREG           equ	4013	;# 
   830   000FAD                     TXREG1          equ	4013	;# 
   831   000FAE                     RCREG           equ	4014	;# 
   832   000FAE                     RCREG1          equ	4014	;# 
   833   000FAF                     SPBRG           equ	4015	;# 
   834   000FAF                     SPBRG1          equ	4015	;# 
   835   000FB0                     SPBRGH          equ	4016	;# 
   836   000FB1                     T3CON           equ	4017	;# 
   837   000FB2                     TMR3            equ	4018	;# 
   838   000FB2                     TMR3L           equ	4018	;# 
   839   000FB3                     TMR3H           equ	4019	;# 
   840   000FB4                     CMCON           equ	4020	;# 
   841   000FB5                     CVRCON          equ	4021	;# 
   842   000FB6                     ECCP1AS         equ	4022	;# 
   843   000FB7                     ECCP1DEL        equ	4023	;# 
   844   000FB8                     BAUDCON         equ	4024	;# 
   845   000FB8                     BAUDCTL         equ	4024	;# 
   846   000FBA                     ECCP1CON        equ	4026	;# 
   847   000FBB                     ECCPR1          equ	4027	;# 
   848   000FBB                     ECCPR1L         equ	4027	;# 
   849   000FBC                     ECCPR1H         equ	4028	;# 
   850   000FBD                     CCP1CON         equ	4029	;# 
   851   000FBE                     CCPR1           equ	4030	;# 
   852   000FBE                     CCPR1L          equ	4030	;# 
   853   000FBF                     CCPR1H          equ	4031	;# 
   854   000FC0                     ADCON2          equ	4032	;# 
   855   000FC1                     ADCON1          equ	4033	;# 
   856   000FC2                     ADCON0          equ	4034	;# 
   857   000FC3                     ADRES           equ	4035	;# 
   858   000FC3                     ADRESL          equ	4035	;# 
   859   000FC4                     ADRESH          equ	4036	;# 
   860   000FC5                     SSPCON2         equ	4037	;# 
   861   000FC6                     SSPCON1         equ	4038	;# 
   862   000FC7                     SSPSTAT         equ	4039	;# 
   863   000FC8                     SSPADD          equ	4040	;# 
   864   000FC9                     SSPBUF          equ	4041	;# 
   865   000FCA                     T2CON           equ	4042	;# 
   866   000FCB                     PR2             equ	4043	;# 
   867   000FCB                     MEMCON          equ	4043	;# 
   868   000FCC                     TMR2            equ	4044	;# 
   869   000FCD                     T1CON           equ	4045	;# 
   870   000FCE                     TMR1            equ	4046	;# 
   871   000FCE                     TMR1L           equ	4046	;# 
   872   000FCF                     TMR1H           equ	4047	;# 
   873   000FD0                     RCON            equ	4048	;# 
   874   000FD1                     WDTCON          equ	4049	;# 
   875   000FD2                     HLVDCON         equ	4050	;# 
   876   000FD2                     LVDCON          equ	4050	;# 
   877   000FD3                     OSCCON          equ	4051	;# 
   878   000FD5                     T0CON           equ	4053	;# 
   879   000FD6                     TMR0            equ	4054	;# 
   880   000FD6                     TMR0L           equ	4054	;# 
   881   000FD7                     TMR0H           equ	4055	;# 
   882   000FD8                     STATUS          equ	4056	;# 
   883   000FD9                     FSR2            equ	4057	;# 
   884   000FD9                     FSR2L           equ	4057	;# 
   885   000FDA                     FSR2H           equ	4058	;# 
   886   000FDB                     PLUSW2          equ	4059	;# 
   887   000FDC                     PREINC2         equ	4060	;# 
   888   000FDD                     POSTDEC2        equ	4061	;# 
   889   000FDE                     POSTINC2        equ	4062	;# 
   890   000FDF                     INDF2           equ	4063	;# 
   891   000FE0                     BSR             equ	4064	;# 
   892   000FE1                     FSR1            equ	4065	;# 
   893   000FE1                     FSR1L           equ	4065	;# 
   894   000FE2                     FSR1H           equ	4066	;# 
   895   000FE3                     PLUSW1          equ	4067	;# 
   896   000FE4                     PREINC1         equ	4068	;# 
   897   000FE5                     POSTDEC1        equ	4069	;# 
   898   000FE6                     POSTINC1        equ	4070	;# 
   899   000FE7                     INDF1           equ	4071	;# 
   900   000FE8                     WREG            equ	4072	;# 
   901   000FE9                     FSR0            equ	4073	;# 
   902   000FE9                     FSR0L           equ	4073	;# 
   903   000FEA                     FSR0H           equ	4074	;# 
   904   000FEB                     PLUSW0          equ	4075	;# 
   905   000FEC                     PREINC0         equ	4076	;# 
   906   000FED                     POSTDEC0        equ	4077	;# 
   907   000FEE                     POSTINC0        equ	4078	;# 
   908   000FEF                     INDF0           equ	4079	;# 
   909   000FF0                     INTCON3         equ	4080	;# 
   910   000FF1                     INTCON2         equ	4081	;# 
   911   000FF2                     INTCON          equ	4082	;# 
   912   000FF3                     PROD            equ	4083	;# 
   913   000FF3                     PRODL           equ	4083	;# 
   914   000FF4                     PRODH           equ	4084	;# 
   915   000FF5                     TABLAT          equ	4085	;# 
   916   000FF6                     TBLPTR          equ	4086	;# 
   917   000FF6                     TBLPTRL         equ	4086	;# 
   918   000FF7                     TBLPTRH         equ	4087	;# 
   919   000FF8                     TBLPTRU         equ	4088	;# 
   920   000FF9                     PCLAT           equ	4089	;# 
   921   000FF9                     PC              equ	4089	;# 
   922   000FF9                     PCL             equ	4089	;# 
   923   000FFA                     PCLATH          equ	4090	;# 
   924   000FFB                     PCLATU          equ	4091	;# 
   925   000FFC                     STKPTR          equ	4092	;# 
   926   000FFD                     TOS             equ	4093	;# 
   927   000FFD                     TOSL            equ	4093	;# 
   928   000FFE                     TOSH            equ	4094	;# 
   929   000FFF                     TOSU            equ	4095	;# 
   930   000D60                     RXF6SIDH        equ	3424	;# 
   931   000D61                     RXF6SIDL        equ	3425	;# 
   932   000D62                     RXF6EIDH        equ	3426	;# 
   933   000D63                     RXF6EIDL        equ	3427	;# 
   934   000D64                     RXF7SIDH        equ	3428	;# 
   935   000D65                     RXF7SIDL        equ	3429	;# 
   936   000D66                     RXF7EIDH        equ	3430	;# 
   937   000D67                     RXF7EIDL        equ	3431	;# 
   938   000D68                     RXF8SIDH        equ	3432	;# 
   939   000D69                     RXF8SIDL        equ	3433	;# 
   940   000D6A                     RXF8EIDH        equ	3434	;# 
   941   000D6B                     RXF8EIDL        equ	3435	;# 
   942   000D70                     RXF9SIDH        equ	3440	;# 
   943   000D71                     RXF9SIDL        equ	3441	;# 
   944   000D72                     RXF9EIDH        equ	3442	;# 
   945   000D73                     RXF9EIDL        equ	3443	;# 
   946   000D74                     RXF10SIDH       equ	3444	;# 
   947   000D75                     RXF10SIDL       equ	3445	;# 
   948   000D76                     RXF10EIDH       equ	3446	;# 
   949   000D77                     RXF10EIDL       equ	3447	;# 
   950   000D78                     RXF11SIDH       equ	3448	;# 
   951   000D79                     RXF11SIDL       equ	3449	;# 
   952   000D7A                     RXF11EIDH       equ	3450	;# 
   953   000D7B                     RXF11EIDL       equ	3451	;# 
   954   000D80                     RXF12SIDH       equ	3456	;# 
   955   000D81                     RXF12SIDL       equ	3457	;# 
   956   000D82                     RXF12EIDH       equ	3458	;# 
   957   000D83                     RXF12EIDL       equ	3459	;# 
   958   000D84                     RXF13SIDH       equ	3460	;# 
   959   000D85                     RXF13SIDL       equ	3461	;# 
   960   000D86                     RXF13EIDH       equ	3462	;# 
   961   000D87                     RXF13EIDL       equ	3463	;# 
   962   000D88                     RXF14SIDH       equ	3464	;# 
   963   000D89                     RXF14SIDL       equ	3465	;# 
   964   000D8A                     RXF14EIDH       equ	3466	;# 
   965   000D8B                     RXF14EIDL       equ	3467	;# 
   966   000D90                     RXF15SIDH       equ	3472	;# 
   967   000D91                     RXF15SIDL       equ	3473	;# 
   968   000D92                     RXF15EIDH       equ	3474	;# 
   969   000D93                     RXF15EIDL       equ	3475	;# 
   970   000DD4                     RXFCON0         equ	3540	;# 
   971   000DD5                     RXFCON1         equ	3541	;# 
   972   000DD8                     SDFLC           equ	3544	;# 
   973   000DE0                     RXFBCON0        equ	3552	;# 
   974   000DE1                     RXFBCON1        equ	3553	;# 
   975   000DE2                     RXFBCON2        equ	3554	;# 
   976   000DE3                     RXFBCON3        equ	3555	;# 
   977   000DE4                     RXFBCON4        equ	3556	;# 
   978   000DE5                     RXFBCON5        equ	3557	;# 
   979   000DE6                     RXFBCON6        equ	3558	;# 
   980   000DE7                     RXFBCON7        equ	3559	;# 
   981   000DF0                     MSEL0           equ	3568	;# 
   982   000DF1                     MSEL1           equ	3569	;# 
   983   000DF2                     MSEL2           equ	3570	;# 
   984   000DF3                     MSEL3           equ	3571	;# 
   985   000DF8                     BSEL0           equ	3576	;# 
   986   000DFA                     BIE0            equ	3578	;# 
   987   000DFC                     TXBIE           equ	3580	;# 
   988   000E20                     B0CON           equ	3616	;# 
   989   000E21                     B0SIDH          equ	3617	;# 
   990   000E22                     B0SIDL          equ	3618	;# 
   991   000E23                     B0EIDH          equ	3619	;# 
   992   000E24                     B0EIDL          equ	3620	;# 
   993   000E25                     B0DLC           equ	3621	;# 
   994   000E26                     B0D0            equ	3622	;# 
   995   000E27                     B0D1            equ	3623	;# 
   996   000E28                     B0D2            equ	3624	;# 
   997   000E29                     B0D3            equ	3625	;# 
   998   000E2A                     B0D4            equ	3626	;# 
   999   000E2B                     B0D5            equ	3627	;# 
  1000   000E2C                     B0D6            equ	3628	;# 
  1001   000E2D                     B0D7            equ	3629	;# 
  1002   000E2E                     CANSTAT_RO9     equ	3630	;# 
  1003   000E2F                     CANCON_RO9      equ	3631	;# 
  1004   000E30                     B1CON           equ	3632	;# 
  1005   000E31                     B1SIDH          equ	3633	;# 
  1006   000E32                     B1SIDL          equ	3634	;# 
  1007   000E33                     B1EIDH          equ	3635	;# 
  1008   000E34                     B1EIDL          equ	3636	;# 
  1009   000E35                     B1DLC           equ	3637	;# 
  1010   000E36                     B1D0            equ	3638	;# 
  1011   000E37                     B1D1            equ	3639	;# 
  1012   000E38                     B1D2            equ	3640	;# 
  1013   000E39                     B1D3            equ	3641	;# 
  1014   000E3A                     B1D4            equ	3642	;# 
  1015   000E3B                     B1D5            equ	3643	;# 
  1016   000E3C                     B1D6            equ	3644	;# 
  1017   000E3D                     B1D7            equ	3645	;# 
  1018   000E3E                     CANSTAT_RO8     equ	3646	;# 
  1019   000E3F                     CANCON_RO8      equ	3647	;# 
  1020   000E40                     B2CON           equ	3648	;# 
  1021   000E41                     B2SIDH          equ	3649	;# 
  1022   000E42                     B2SIDL          equ	3650	;# 
  1023   000E43                     B2EIDH          equ	3651	;# 
  1024   000E44                     B2EIDL          equ	3652	;# 
  1025   000E45                     B2DLC           equ	3653	;# 
  1026   000E46                     B2D0            equ	3654	;# 
  1027   000E47                     B2D1            equ	3655	;# 
  1028   000E48                     B2D2            equ	3656	;# 
  1029   000E49                     B2D3            equ	3657	;# 
  1030   000E4A                     B2D4            equ	3658	;# 
  1031   000E4B                     B2D5            equ	3659	;# 
  1032   000E4C                     B2D6            equ	3660	;# 
  1033   000E4D                     B2D7            equ	3661	;# 
  1034   000E4E                     CANSTAT_RO7     equ	3662	;# 
  1035   000E4F                     CANCON_RO7      equ	3663	;# 
  1036   000E50                     B3CON           equ	3664	;# 
  1037   000E51                     B3SIDH          equ	3665	;# 
  1038   000E52                     B3SIDL          equ	3666	;# 
  1039   000E53                     B3EIDH          equ	3667	;# 
  1040   000E54                     B3EIDL          equ	3668	;# 
  1041   000E55                     B3DLC           equ	3669	;# 
  1042   000E56                     B3D0            equ	3670	;# 
  1043   000E57                     B3D1            equ	3671	;# 
  1044   000E58                     B3D2            equ	3672	;# 
  1045   000E59                     B3D3            equ	3673	;# 
  1046   000E5A                     B3D4            equ	3674	;# 
  1047   000E5B                     B3D5            equ	3675	;# 
  1048   000E5C                     B3D6            equ	3676	;# 
  1049   000E5D                     B3D7            equ	3677	;# 
  1050   000E5E                     CANSTAT_RO6     equ	3678	;# 
  1051   000E5F                     CANCON_RO6      equ	3679	;# 
  1052   000E60                     B4CON           equ	3680	;# 
  1053   000E61                     B4SIDH          equ	3681	;# 
  1054   000E62                     B4SIDL          equ	3682	;# 
  1055   000E63                     B4EIDH          equ	3683	;# 
  1056   000E64                     B4EIDL          equ	3684	;# 
  1057   000E65                     B4DLC           equ	3685	;# 
  1058   000E66                     B4D0            equ	3686	;# 
  1059   000E67                     B4D1            equ	3687	;# 
  1060   000E68                     B4D2            equ	3688	;# 
  1061   000E69                     B4D3            equ	3689	;# 
  1062   000E6A                     B4D4            equ	3690	;# 
  1063   000E6B                     B4D5            equ	3691	;# 
  1064   000E6C                     B4D6            equ	3692	;# 
  1065   000E6D                     B4D7            equ	3693	;# 
  1066   000E6E                     CANSTAT_RO5     equ	3694	;# 
  1067   000E6F                     CANCON_RO5      equ	3695	;# 
  1068   000E70                     B5CON           equ	3696	;# 
  1069   000E71                     B5SIDH          equ	3697	;# 
  1070   000E72                     B5SIDL          equ	3698	;# 
  1071   000E73                     B5EIDH          equ	3699	;# 
  1072   000E74                     B5EIDL          equ	3700	;# 
  1073   000E75                     B5DLC           equ	3701	;# 
  1074   000E76                     B5D0            equ	3702	;# 
  1075   000E77                     B5D1            equ	3703	;# 
  1076   000E78                     B5D2            equ	3704	;# 
  1077   000E79                     B5D3            equ	3705	;# 
  1078   000E7A                     B5D4            equ	3706	;# 
  1079   000E7B                     B5D5            equ	3707	;# 
  1080   000E7C                     B5D6            equ	3708	;# 
  1081   000E7D                     B5D7            equ	3709	;# 
  1082   000E7E                     CANSTAT_RO4     equ	3710	;# 
  1083   000E7F                     CANCON_RO4      equ	3711	;# 
  1084   000F00                     RXF0SIDH        equ	3840	;# 
  1085   000F01                     RXF0SIDL        equ	3841	;# 
  1086   000F02                     RXF0EIDH        equ	3842	;# 
  1087   000F03                     RXF0EIDL        equ	3843	;# 
  1088   000F04                     RXF1SIDH        equ	3844	;# 
  1089   000F05                     RXF1SIDL        equ	3845	;# 
  1090   000F06                     RXF1EIDH        equ	3846	;# 
  1091   000F07                     RXF1EIDL        equ	3847	;# 
  1092   000F08                     RXF2SIDH        equ	3848	;# 
  1093   000F09                     RXF2SIDL        equ	3849	;# 
  1094   000F0A                     RXF2EIDH        equ	3850	;# 
  1095   000F0B                     RXF2EIDL        equ	3851	;# 
  1096   000F0C                     RXF3SIDH        equ	3852	;# 
  1097   000F0D                     RXF3SIDL        equ	3853	;# 
  1098   000F0E                     RXF3EIDH        equ	3854	;# 
  1099   000F0F                     RXF3EIDL        equ	3855	;# 
  1100   000F10                     RXF4SIDH        equ	3856	;# 
  1101   000F11                     RXF4SIDL        equ	3857	;# 
  1102   000F12                     RXF4EIDH        equ	3858	;# 
  1103   000F13                     RXF4EIDL        equ	3859	;# 
  1104   000F14                     RXF5SIDH        equ	3860	;# 
  1105   000F15                     RXF5SIDL        equ	3861	;# 
  1106   000F16                     RXF5EIDH        equ	3862	;# 
  1107   000F17                     RXF5EIDL        equ	3863	;# 
  1108   000F18                     RXM0SIDH        equ	3864	;# 
  1109   000F19                     RXM0SIDL        equ	3865	;# 
  1110   000F1A                     RXM0EIDH        equ	3866	;# 
  1111   000F1B                     RXM0EIDL        equ	3867	;# 
  1112   000F1C                     RXM1SIDH        equ	3868	;# 
  1113   000F1D                     RXM1SIDL        equ	3869	;# 
  1114   000F1E                     RXM1EIDH        equ	3870	;# 
  1115   000F1F                     RXM1EIDL        equ	3871	;# 
  1116   000F20                     TXB2CON         equ	3872	;# 
  1117   000F21                     TXB2SIDH        equ	3873	;# 
  1118   000F22                     TXB2SIDL        equ	3874	;# 
  1119   000F23                     TXB2EIDH        equ	3875	;# 
  1120   000F24                     TXB2EIDL        equ	3876	;# 
  1121   000F25                     TXB2DLC         equ	3877	;# 
  1122   000F26                     TXB2D0          equ	3878	;# 
  1123   000F27                     TXB2D1          equ	3879	;# 
  1124   000F28                     TXB2D2          equ	3880	;# 
  1125   000F29                     TXB2D3          equ	3881	;# 
  1126   000F2A                     TXB2D4          equ	3882	;# 
  1127   000F2B                     TXB2D5          equ	3883	;# 
  1128   000F2C                     TXB2D6          equ	3884	;# 
  1129   000F2D                     TXB2D7          equ	3885	;# 
  1130   000F2E                     CANSTAT_RO3     equ	3886	;# 
  1131   000F2F                     CANCON_RO3      equ	3887	;# 
  1132   000F30                     TXB1CON         equ	3888	;# 
  1133   000F31                     TXB1SIDH        equ	3889	;# 
  1134   000F32                     TXB1SIDL        equ	3890	;# 
  1135   000F33                     TXB1EIDH        equ	3891	;# 
  1136   000F34                     TXB1EIDL        equ	3892	;# 
  1137   000F35                     TXB1DLC         equ	3893	;# 
  1138   000F36                     TXB1D0          equ	3894	;# 
  1139   000F37                     TXB1D1          equ	3895	;# 
  1140   000F38                     TXB1D2          equ	3896	;# 
  1141   000F39                     TXB1D3          equ	3897	;# 
  1142   000F3A                     TXB1D4          equ	3898	;# 
  1143   000F3B                     TXB1D5          equ	3899	;# 
  1144   000F3C                     TXB1D6          equ	3900	;# 
  1145   000F3D                     TXB1D7          equ	3901	;# 
  1146   000F3E                     CANSTAT_RO2     equ	3902	;# 
  1147   000F3F                     CANCON_RO2      equ	3903	;# 
  1148   000F40                     TXB0CON         equ	3904	;# 
  1149   000F41                     TXB0SIDH        equ	3905	;# 
  1150   000F42                     TXB0SIDL        equ	3906	;# 
  1151   000F43                     TXB0EIDH        equ	3907	;# 
  1152   000F44                     TXB0EIDL        equ	3908	;# 
  1153   000F45                     TXB0DLC         equ	3909	;# 
  1154   000F46                     TXB0D0          equ	3910	;# 
  1155   000F47                     TXB0D1          equ	3911	;# 
  1156   000F48                     TXB0D2          equ	3912	;# 
  1157   000F49                     TXB0D3          equ	3913	;# 
  1158   000F4A                     TXB0D4          equ	3914	;# 
  1159   000F4B                     TXB0D5          equ	3915	;# 
  1160   000F4C                     TXB0D6          equ	3916	;# 
  1161   000F4D                     TXB0D7          equ	3917	;# 
  1162   000F4E                     CANSTAT_RO1     equ	3918	;# 
  1163   000F4F                     CANCON_RO1      equ	3919	;# 
  1164   000F50                     RXB1CON         equ	3920	;# 
  1165   000F51                     RXB1SIDH        equ	3921	;# 
  1166   000F52                     RXB1SIDL        equ	3922	;# 
  1167   000F53                     RXB1EIDH        equ	3923	;# 
  1168   000F54                     RXB1EIDL        equ	3924	;# 
  1169   000F55                     RXB1DLC         equ	3925	;# 
  1170   000F56                     RXB1D0          equ	3926	;# 
  1171   000F57                     RXB1D1          equ	3927	;# 
  1172   000F58                     RXB1D2          equ	3928	;# 
  1173   000F59                     RXB1D3          equ	3929	;# 
  1174   000F5A                     RXB1D4          equ	3930	;# 
  1175   000F5B                     RXB1D5          equ	3931	;# 
  1176   000F5C                     RXB1D6          equ	3932	;# 
  1177   000F5D                     RXB1D7          equ	3933	;# 
  1178   000F5E                     CANSTAT_RO0     equ	3934	;# 
  1179   000F5F                     CANCON_RO0      equ	3935	;# 
  1180   000F60                     RXB0CON         equ	3936	;# 
  1181   000F61                     RXB0SIDH        equ	3937	;# 
  1182   000F62                     RXB0SIDL        equ	3938	;# 
  1183   000F63                     RXB0EIDH        equ	3939	;# 
  1184   000F64                     RXB0EIDL        equ	3940	;# 
  1185   000F65                     RXB0DLC         equ	3941	;# 
  1186   000F66                     RXB0D0          equ	3942	;# 
  1187   000F67                     RXB0D1          equ	3943	;# 
  1188   000F68                     RXB0D2          equ	3944	;# 
  1189   000F69                     RXB0D3          equ	3945	;# 
  1190   000F6A                     RXB0D4          equ	3946	;# 
  1191   000F6B                     RXB0D5          equ	3947	;# 
  1192   000F6C                     RXB0D6          equ	3948	;# 
  1193   000F6D                     RXB0D7          equ	3949	;# 
  1194   000F6E                     CANSTAT         equ	3950	;# 
  1195   000F6F                     CANCON          equ	3951	;# 
  1196   000F70                     BRGCON1         equ	3952	;# 
  1197   000F71                     BRGCON2         equ	3953	;# 
  1198   000F72                     BRGCON3         equ	3954	;# 
  1199   000F73                     CIOCON          equ	3955	;# 
  1200   000F74                     COMSTAT         equ	3956	;# 
  1201   000F75                     RXERRCNT        equ	3957	;# 
  1202   000F76                     TXERRCNT        equ	3958	;# 
  1203   000F77                     ECANCON         equ	3959	;# 
  1204   000F80                     PORTA           equ	3968	;# 
  1205   000F81                     PORTB           equ	3969	;# 
  1206   000F82                     PORTC           equ	3970	;# 
  1207   000F83                     PORTD           equ	3971	;# 
  1208   000F84                     PORTE           equ	3972	;# 
  1209   000F89                     LATA            equ	3977	;# 
  1210   000F8A                     LATB            equ	3978	;# 
  1211   000F8B                     LATC            equ	3979	;# 
  1212   000F8C                     LATD            equ	3980	;# 
  1213   000F8D                     LATE            equ	3981	;# 
  1214   000F92                     TRISA           equ	3986	;# 
  1215   000F92                     DDRA            equ	3986	;# 
  1216   000F93                     TRISB           equ	3987	;# 
  1217   000F93                     DDRB            equ	3987	;# 
  1218   000F94                     TRISC           equ	3988	;# 
  1219   000F94                     DDRC            equ	3988	;# 
  1220   000F95                     TRISD           equ	3989	;# 
  1221   000F95                     DDRD            equ	3989	;# 
  1222   000F96                     TRISE           equ	3990	;# 
  1223   000F96                     DDRE            equ	3990	;# 
  1224   000F9B                     OSCTUNE         equ	3995	;# 
  1225   000F9D                     PIE1            equ	3997	;# 
  1226   000F9E                     PIR1            equ	3998	;# 
  1227   000F9F                     IPR1            equ	3999	;# 
  1228   000FA0                     PIE2            equ	4000	;# 
  1229   000FA1                     PIR2            equ	4001	;# 
  1230   000FA2                     IPR2            equ	4002	;# 
  1231   000FA3                     PIE3            equ	4003	;# 
  1232   000FA4                     PIR3            equ	4004	;# 
  1233   000FA5                     IPR3            equ	4005	;# 
  1234   000FA6                     EECON1          equ	4006	;# 
  1235   000FA7                     EECON2          equ	4007	;# 
  1236   000FA8                     EEDATA          equ	4008	;# 
  1237   000FA9                     EEADR           equ	4009	;# 
  1238   000FAB                     RCSTA           equ	4011	;# 
  1239   000FAB                     RCSTA1          equ	4011	;# 
  1240   000FAC                     TXSTA           equ	4012	;# 
  1241   000FAC                     TXSTA1          equ	4012	;# 
  1242   000FAD                     TXREG           equ	4013	;# 
  1243   000FAD                     TXREG1          equ	4013	;# 
  1244   000FAE                     RCREG           equ	4014	;# 
  1245   000FAE                     RCREG1          equ	4014	;# 
  1246   000FAF                     SPBRG           equ	4015	;# 
  1247   000FAF                     SPBRG1          equ	4015	;# 
  1248   000FB0                     SPBRGH          equ	4016	;# 
  1249   000FB1                     T3CON           equ	4017	;# 
  1250   000FB2                     TMR3            equ	4018	;# 
  1251   000FB2                     TMR3L           equ	4018	;# 
  1252   000FB3                     TMR3H           equ	4019	;# 
  1253   000FB4                     CMCON           equ	4020	;# 
  1254   000FB5                     CVRCON          equ	4021	;# 
  1255   000FB6                     ECCP1AS         equ	4022	;# 
  1256   000FB7                     ECCP1DEL        equ	4023	;# 
  1257   000FB8                     BAUDCON         equ	4024	;# 
  1258   000FB8                     BAUDCTL         equ	4024	;# 
  1259   000FBA                     ECCP1CON        equ	4026	;# 
  1260   000FBB                     ECCPR1          equ	4027	;# 
  1261   000FBB                     ECCPR1L         equ	4027	;# 
  1262   000FBC                     ECCPR1H         equ	4028	;# 
  1263   000FBD                     CCP1CON         equ	4029	;# 
  1264   000FBE                     CCPR1           equ	4030	;# 
  1265   000FBE                     CCPR1L          equ	4030	;# 
  1266   000FBF                     CCPR1H          equ	4031	;# 
  1267   000FC0                     ADCON2          equ	4032	;# 
  1268   000FC1                     ADCON1          equ	4033	;# 
  1269   000FC2                     ADCON0          equ	4034	;# 
  1270   000FC3                     ADRES           equ	4035	;# 
  1271   000FC3                     ADRESL          equ	4035	;# 
  1272   000FC4                     ADRESH          equ	4036	;# 
  1273   000FC5                     SSPCON2         equ	4037	;# 
  1274   000FC6                     SSPCON1         equ	4038	;# 
  1275   000FC7                     SSPSTAT         equ	4039	;# 
  1276   000FC8                     SSPADD          equ	4040	;# 
  1277   000FC9                     SSPBUF          equ	4041	;# 
  1278   000FCA                     T2CON           equ	4042	;# 
  1279   000FCB                     PR2             equ	4043	;# 
  1280   000FCB                     MEMCON          equ	4043	;# 
  1281   000FCC                     TMR2            equ	4044	;# 
  1282   000FCD                     T1CON           equ	4045	;# 
  1283   000FCE                     TMR1            equ	4046	;# 
  1284   000FCE                     TMR1L           equ	4046	;# 
  1285   000FCF                     TMR1H           equ	4047	;# 
  1286   000FD0                     RCON            equ	4048	;# 
  1287   000FD1                     WDTCON          equ	4049	;# 
  1288   000FD2                     HLVDCON         equ	4050	;# 
  1289   000FD2                     LVDCON          equ	4050	;# 
  1290   000FD3                     OSCCON          equ	4051	;# 
  1291   000FD5                     T0CON           equ	4053	;# 
  1292   000FD6                     TMR0            equ	4054	;# 
  1293   000FD6                     TMR0L           equ	4054	;# 
  1294   000FD7                     TMR0H           equ	4055	;# 
  1295   000FD8                     STATUS          equ	4056	;# 
  1296   000FD9                     FSR2            equ	4057	;# 
  1297   000FD9                     FSR2L           equ	4057	;# 
  1298   000FDA                     FSR2H           equ	4058	;# 
  1299   000FDB                     PLUSW2          equ	4059	;# 
  1300   000FDC                     PREINC2         equ	4060	;# 
  1301   000FDD                     POSTDEC2        equ	4061	;# 
  1302   000FDE                     POSTINC2        equ	4062	;# 
  1303   000FDF                     INDF2           equ	4063	;# 
  1304   000FE0                     BSR             equ	4064	;# 
  1305   000FE1                     FSR1            equ	4065	;# 
  1306   000FE1                     FSR1L           equ	4065	;# 
  1307   000FE2                     FSR1H           equ	4066	;# 
  1308   000FE3                     PLUSW1          equ	4067	;# 
  1309   000FE4                     PREINC1         equ	4068	;# 
  1310   000FE5                     POSTDEC1        equ	4069	;# 
  1311   000FE6                     POSTINC1        equ	4070	;# 
  1312   000FE7                     INDF1           equ	4071	;# 
  1313   000FE8                     WREG            equ	4072	;# 
  1314   000FE9                     FSR0            equ	4073	;# 
  1315   000FE9                     FSR0L           equ	4073	;# 
  1316   000FEA                     FSR0H           equ	4074	;# 
  1317   000FEB                     PLUSW0          equ	4075	;# 
  1318   000FEC                     PREINC0         equ	4076	;# 
  1319   000FED                     POSTDEC0        equ	4077	;# 
  1320   000FEE                     POSTINC0        equ	4078	;# 
  1321   000FEF                     INDF0           equ	4079	;# 
  1322   000FF0                     INTCON3         equ	4080	;# 
  1323   000FF1                     INTCON2         equ	4081	;# 
  1324   000FF2                     INTCON          equ	4082	;# 
  1325   000FF3                     PROD            equ	4083	;# 
  1326   000FF3                     PRODL           equ	4083	;# 
  1327   000FF4                     PRODH           equ	4084	;# 
  1328   000FF5                     TABLAT          equ	4085	;# 
  1329   000FF6                     TBLPTR          equ	4086	;# 
  1330   000FF6                     TBLPTRL         equ	4086	;# 
  1331   000FF7                     TBLPTRH         equ	4087	;# 
  1332   000FF8                     TBLPTRU         equ	4088	;# 
  1333   000FF9                     PCLAT           equ	4089	;# 
  1334   000FF9                     PC              equ	4089	;# 
  1335   000FF9                     PCL             equ	4089	;# 
  1336   000FFA                     PCLATH          equ	4090	;# 
  1337   000FFB                     PCLATU          equ	4091	;# 
  1338   000FFC                     STKPTR          equ	4092	;# 
  1339   000FFD                     TOS             equ	4093	;# 
  1340   000FFD                     TOSL            equ	4093	;# 
  1341   000FFE                     TOSH            equ	4094	;# 
  1342   000FFF                     TOSU            equ	4095	;# 
  1343   000D60                     RXF6SIDH        equ	3424	;# 
  1344   000D61                     RXF6SIDL        equ	3425	;# 
  1345   000D62                     RXF6EIDH        equ	3426	;# 
  1346   000D63                     RXF6EIDL        equ	3427	;# 
  1347   000D64                     RXF7SIDH        equ	3428	;# 
  1348   000D65                     RXF7SIDL        equ	3429	;# 
  1349   000D66                     RXF7EIDH        equ	3430	;# 
  1350   000D67                     RXF7EIDL        equ	3431	;# 
  1351   000D68                     RXF8SIDH        equ	3432	;# 
  1352   000D69                     RXF8SIDL        equ	3433	;# 
  1353   000D6A                     RXF8EIDH        equ	3434	;# 
  1354   000D6B                     RXF8EIDL        equ	3435	;# 
  1355   000D70                     RXF9SIDH        equ	3440	;# 
  1356   000D71                     RXF9SIDL        equ	3441	;# 
  1357   000D72                     RXF9EIDH        equ	3442	;# 
  1358   000D73                     RXF9EIDL        equ	3443	;# 
  1359   000D74                     RXF10SIDH       equ	3444	;# 
  1360   000D75                     RXF10SIDL       equ	3445	;# 
  1361   000D76                     RXF10EIDH       equ	3446	;# 
  1362   000D77                     RXF10EIDL       equ	3447	;# 
  1363   000D78                     RXF11SIDH       equ	3448	;# 
  1364   000D79                     RXF11SIDL       equ	3449	;# 
  1365   000D7A                     RXF11EIDH       equ	3450	;# 
  1366   000D7B                     RXF11EIDL       equ	3451	;# 
  1367   000D80                     RXF12SIDH       equ	3456	;# 
  1368   000D81                     RXF12SIDL       equ	3457	;# 
  1369   000D82                     RXF12EIDH       equ	3458	;# 
  1370   000D83                     RXF12EIDL       equ	3459	;# 
  1371   000D84                     RXF13SIDH       equ	3460	;# 
  1372   000D85                     RXF13SIDL       equ	3461	;# 
  1373   000D86                     RXF13EIDH       equ	3462	;# 
  1374   000D87                     RXF13EIDL       equ	3463	;# 
  1375   000D88                     RXF14SIDH       equ	3464	;# 
  1376   000D89                     RXF14SIDL       equ	3465	;# 
  1377   000D8A                     RXF14EIDH       equ	3466	;# 
  1378   000D8B                     RXF14EIDL       equ	3467	;# 
  1379   000D90                     RXF15SIDH       equ	3472	;# 
  1380   000D91                     RXF15SIDL       equ	3473	;# 
  1381   000D92                     RXF15EIDH       equ	3474	;# 
  1382   000D93                     RXF15EIDL       equ	3475	;# 
  1383   000DD4                     RXFCON0         equ	3540	;# 
  1384   000DD5                     RXFCON1         equ	3541	;# 
  1385   000DD8                     SDFLC           equ	3544	;# 
  1386   000DE0                     RXFBCON0        equ	3552	;# 
  1387   000DE1                     RXFBCON1        equ	3553	;# 
  1388   000DE2                     RXFBCON2        equ	3554	;# 
  1389   000DE3                     RXFBCON3        equ	3555	;# 
  1390   000DE4                     RXFBCON4        equ	3556	;# 
  1391   000DE5                     RXFBCON5        equ	3557	;# 
  1392   000DE6                     RXFBCON6        equ	3558	;# 
  1393   000DE7                     RXFBCON7        equ	3559	;# 
  1394   000DF0                     MSEL0           equ	3568	;# 
  1395   000DF1                     MSEL1           equ	3569	;# 
  1396   000DF2                     MSEL2           equ	3570	;# 
  1397   000DF3                     MSEL3           equ	3571	;# 
  1398   000DF8                     BSEL0           equ	3576	;# 
  1399   000DFA                     BIE0            equ	3578	;# 
  1400   000DFC                     TXBIE           equ	3580	;# 
  1401   000E20                     B0CON           equ	3616	;# 
  1402   000E21                     B0SIDH          equ	3617	;# 
  1403   000E22                     B0SIDL          equ	3618	;# 
  1404   000E23                     B0EIDH          equ	3619	;# 
  1405   000E24                     B0EIDL          equ	3620	;# 
  1406   000E25                     B0DLC           equ	3621	;# 
  1407   000E26                     B0D0            equ	3622	;# 
  1408   000E27                     B0D1            equ	3623	;# 
  1409   000E28                     B0D2            equ	3624	;# 
  1410   000E29                     B0D3            equ	3625	;# 
  1411   000E2A                     B0D4            equ	3626	;# 
  1412   000E2B                     B0D5            equ	3627	;# 
  1413   000E2C                     B0D6            equ	3628	;# 
  1414   000E2D                     B0D7            equ	3629	;# 
  1415   000E2E                     CANSTAT_RO9     equ	3630	;# 
  1416   000E2F                     CANCON_RO9      equ	3631	;# 
  1417   000E30                     B1CON           equ	3632	;# 
  1418   000E31                     B1SIDH          equ	3633	;# 
  1419   000E32                     B1SIDL          equ	3634	;# 
  1420   000E33                     B1EIDH          equ	3635	;# 
  1421   000E34                     B1EIDL          equ	3636	;# 
  1422   000E35                     B1DLC           equ	3637	;# 
  1423   000E36                     B1D0            equ	3638	;# 
  1424   000E37                     B1D1            equ	3639	;# 
  1425   000E38                     B1D2            equ	3640	;# 
  1426   000E39                     B1D3            equ	3641	;# 
  1427   000E3A                     B1D4            equ	3642	;# 
  1428   000E3B                     B1D5            equ	3643	;# 
  1429   000E3C                     B1D6            equ	3644	;# 
  1430   000E3D                     B1D7            equ	3645	;# 
  1431   000E3E                     CANSTAT_RO8     equ	3646	;# 
  1432   000E3F                     CANCON_RO8      equ	3647	;# 
  1433   000E40                     B2CON           equ	3648	;# 
  1434   000E41                     B2SIDH          equ	3649	;# 
  1435   000E42                     B2SIDL          equ	3650	;# 
  1436   000E43                     B2EIDH          equ	3651	;# 
  1437   000E44                     B2EIDL          equ	3652	;# 
  1438   000E45                     B2DLC           equ	3653	;# 
  1439   000E46                     B2D0            equ	3654	;# 
  1440   000E47                     B2D1            equ	3655	;# 
  1441   000E48                     B2D2            equ	3656	;# 
  1442   000E49                     B2D3            equ	3657	;# 
  1443   000E4A                     B2D4            equ	3658	;# 
  1444   000E4B                     B2D5            equ	3659	;# 
  1445   000E4C                     B2D6            equ	3660	;# 
  1446   000E4D                     B2D7            equ	3661	;# 
  1447   000E4E                     CANSTAT_RO7     equ	3662	;# 
  1448   000E4F                     CANCON_RO7      equ	3663	;# 
  1449   000E50                     B3CON           equ	3664	;# 
  1450   000E51                     B3SIDH          equ	3665	;# 
  1451   000E52                     B3SIDL          equ	3666	;# 
  1452   000E53                     B3EIDH          equ	3667	;# 
  1453   000E54                     B3EIDL          equ	3668	;# 
  1454   000E55                     B3DLC           equ	3669	;# 
  1455   000E56                     B3D0            equ	3670	;# 
  1456   000E57                     B3D1            equ	3671	;# 
  1457   000E58                     B3D2            equ	3672	;# 
  1458   000E59                     B3D3            equ	3673	;# 
  1459   000E5A                     B3D4            equ	3674	;# 
  1460   000E5B                     B3D5            equ	3675	;# 
  1461   000E5C                     B3D6            equ	3676	;# 
  1462   000E5D                     B3D7            equ	3677	;# 
  1463   000E5E                     CANSTAT_RO6     equ	3678	;# 
  1464   000E5F                     CANCON_RO6      equ	3679	;# 
  1465   000E60                     B4CON           equ	3680	;# 
  1466   000E61                     B4SIDH          equ	3681	;# 
  1467   000E62                     B4SIDL          equ	3682	;# 
  1468   000E63                     B4EIDH          equ	3683	;# 
  1469   000E64                     B4EIDL          equ	3684	;# 
  1470   000E65                     B4DLC           equ	3685	;# 
  1471   000E66                     B4D0            equ	3686	;# 
  1472   000E67                     B4D1            equ	3687	;# 
  1473   000E68                     B4D2            equ	3688	;# 
  1474   000E69                     B4D3            equ	3689	;# 
  1475   000E6A                     B4D4            equ	3690	;# 
  1476   000E6B                     B4D5            equ	3691	;# 
  1477   000E6C                     B4D6            equ	3692	;# 
  1478   000E6D                     B4D7            equ	3693	;# 
  1479   000E6E                     CANSTAT_RO5     equ	3694	;# 
  1480   000E6F                     CANCON_RO5      equ	3695	;# 
  1481   000E70                     B5CON           equ	3696	;# 
  1482   000E71                     B5SIDH          equ	3697	;# 
  1483   000E72                     B5SIDL          equ	3698	;# 
  1484   000E73                     B5EIDH          equ	3699	;# 
  1485   000E74                     B5EIDL          equ	3700	;# 
  1486   000E75                     B5DLC           equ	3701	;# 
  1487   000E76                     B5D0            equ	3702	;# 
  1488   000E77                     B5D1            equ	3703	;# 
  1489   000E78                     B5D2            equ	3704	;# 
  1490   000E79                     B5D3            equ	3705	;# 
  1491   000E7A                     B5D4            equ	3706	;# 
  1492   000E7B                     B5D5            equ	3707	;# 
  1493   000E7C                     B5D6            equ	3708	;# 
  1494   000E7D                     B5D7            equ	3709	;# 
  1495   000E7E                     CANSTAT_RO4     equ	3710	;# 
  1496   000E7F                     CANCON_RO4      equ	3711	;# 
  1497   000F00                     RXF0SIDH        equ	3840	;# 
  1498   000F01                     RXF0SIDL        equ	3841	;# 
  1499   000F02                     RXF0EIDH        equ	3842	;# 
  1500   000F03                     RXF0EIDL        equ	3843	;# 
  1501   000F04                     RXF1SIDH        equ	3844	;# 
  1502   000F05                     RXF1SIDL        equ	3845	;# 
  1503   000F06                     RXF1EIDH        equ	3846	;# 
  1504   000F07                     RXF1EIDL        equ	3847	;# 
  1505   000F08                     RXF2SIDH        equ	3848	;# 
  1506   000F09                     RXF2SIDL        equ	3849	;# 
  1507   000F0A                     RXF2EIDH        equ	3850	;# 
  1508   000F0B                     RXF2EIDL        equ	3851	;# 
  1509   000F0C                     RXF3SIDH        equ	3852	;# 
  1510   000F0D                     RXF3SIDL        equ	3853	;# 
  1511   000F0E                     RXF3EIDH        equ	3854	;# 
  1512   000F0F                     RXF3EIDL        equ	3855	;# 
  1513   000F10                     RXF4SIDH        equ	3856	;# 
  1514   000F11                     RXF4SIDL        equ	3857	;# 
  1515   000F12                     RXF4EIDH        equ	3858	;# 
  1516   000F13                     RXF4EIDL        equ	3859	;# 
  1517   000F14                     RXF5SIDH        equ	3860	;# 
  1518   000F15                     RXF5SIDL        equ	3861	;# 
  1519   000F16                     RXF5EIDH        equ	3862	;# 
  1520   000F17                     RXF5EIDL        equ	3863	;# 
  1521   000F18                     RXM0SIDH        equ	3864	;# 
  1522   000F19                     RXM0SIDL        equ	3865	;# 
  1523   000F1A                     RXM0EIDH        equ	3866	;# 
  1524   000F1B                     RXM0EIDL        equ	3867	;# 
  1525   000F1C                     RXM1SIDH        equ	3868	;# 
  1526   000F1D                     RXM1SIDL        equ	3869	;# 
  1527   000F1E                     RXM1EIDH        equ	3870	;# 
  1528   000F1F                     RXM1EIDL        equ	3871	;# 
  1529   000F20                     TXB2CON         equ	3872	;# 
  1530   000F21                     TXB2SIDH        equ	3873	;# 
  1531   000F22                     TXB2SIDL        equ	3874	;# 
  1532   000F23                     TXB2EIDH        equ	3875	;# 
  1533   000F24                     TXB2EIDL        equ	3876	;# 
  1534   000F25                     TXB2DLC         equ	3877	;# 
  1535   000F26                     TXB2D0          equ	3878	;# 
  1536   000F27                     TXB2D1          equ	3879	;# 
  1537   000F28                     TXB2D2          equ	3880	;# 
  1538   000F29                     TXB2D3          equ	3881	;# 
  1539   000F2A                     TXB2D4          equ	3882	;# 
  1540   000F2B                     TXB2D5          equ	3883	;# 
  1541   000F2C                     TXB2D6          equ	3884	;# 
  1542   000F2D                     TXB2D7          equ	3885	;# 
  1543   000F2E                     CANSTAT_RO3     equ	3886	;# 
  1544   000F2F                     CANCON_RO3      equ	3887	;# 
  1545   000F30                     TXB1CON         equ	3888	;# 
  1546   000F31                     TXB1SIDH        equ	3889	;# 
  1547   000F32                     TXB1SIDL        equ	3890	;# 
  1548   000F33                     TXB1EIDH        equ	3891	;# 
  1549   000F34                     TXB1EIDL        equ	3892	;# 
  1550   000F35                     TXB1DLC         equ	3893	;# 
  1551   000F36                     TXB1D0          equ	3894	;# 
  1552   000F37                     TXB1D1          equ	3895	;# 
  1553   000F38                     TXB1D2          equ	3896	;# 
  1554   000F39                     TXB1D3          equ	3897	;# 
  1555   000F3A                     TXB1D4          equ	3898	;# 
  1556   000F3B                     TXB1D5          equ	3899	;# 
  1557   000F3C                     TXB1D6          equ	3900	;# 
  1558   000F3D                     TXB1D7          equ	3901	;# 
  1559   000F3E                     CANSTAT_RO2     equ	3902	;# 
  1560   000F3F                     CANCON_RO2      equ	3903	;# 
  1561   000F40                     TXB0CON         equ	3904	;# 
  1562   000F41                     TXB0SIDH        equ	3905	;# 
  1563   000F42                     TXB0SIDL        equ	3906	;# 
  1564   000F43                     TXB0EIDH        equ	3907	;# 
  1565   000F44                     TXB0EIDL        equ	3908	;# 
  1566   000F45                     TXB0DLC         equ	3909	;# 
  1567   000F46                     TXB0D0          equ	3910	;# 
  1568   000F47                     TXB0D1          equ	3911	;# 
  1569   000F48                     TXB0D2          equ	3912	;# 
  1570   000F49                     TXB0D3          equ	3913	;# 
  1571   000F4A                     TXB0D4          equ	3914	;# 
  1572   000F4B                     TXB0D5          equ	3915	;# 
  1573   000F4C                     TXB0D6          equ	3916	;# 
  1574   000F4D                     TXB0D7          equ	3917	;# 
  1575   000F4E                     CANSTAT_RO1     equ	3918	;# 
  1576   000F4F                     CANCON_RO1      equ	3919	;# 
  1577   000F50                     RXB1CON         equ	3920	;# 
  1578   000F51                     RXB1SIDH        equ	3921	;# 
  1579   000F52                     RXB1SIDL        equ	3922	;# 
  1580   000F53                     RXB1EIDH        equ	3923	;# 
  1581   000F54                     RXB1EIDL        equ	3924	;# 
  1582   000F55                     RXB1DLC         equ	3925	;# 
  1583   000F56                     RXB1D0          equ	3926	;# 
  1584   000F57                     RXB1D1          equ	3927	;# 
  1585   000F58                     RXB1D2          equ	3928	;# 
  1586   000F59                     RXB1D3          equ	3929	;# 
  1587   000F5A                     RXB1D4          equ	3930	;# 
  1588   000F5B                     RXB1D5          equ	3931	;# 
  1589   000F5C                     RXB1D6          equ	3932	;# 
  1590   000F5D                     RXB1D7          equ	3933	;# 
  1591   000F5E                     CANSTAT_RO0     equ	3934	;# 
  1592   000F5F                     CANCON_RO0      equ	3935	;# 
  1593   000F60                     RXB0CON         equ	3936	;# 
  1594   000F61                     RXB0SIDH        equ	3937	;# 
  1595   000F62                     RXB0SIDL        equ	3938	;# 
  1596   000F63                     RXB0EIDH        equ	3939	;# 
  1597   000F64                     RXB0EIDL        equ	3940	;# 
  1598   000F65                     RXB0DLC         equ	3941	;# 
  1599   000F66                     RXB0D0          equ	3942	;# 
  1600   000F67                     RXB0D1          equ	3943	;# 
  1601   000F68                     RXB0D2          equ	3944	;# 
  1602   000F69                     RXB0D3          equ	3945	;# 
  1603   000F6A                     RXB0D4          equ	3946	;# 
  1604   000F6B                     RXB0D5          equ	3947	;# 
  1605   000F6C                     RXB0D6          equ	3948	;# 
  1606   000F6D                     RXB0D7          equ	3949	;# 
  1607   000F6E                     CANSTAT         equ	3950	;# 
  1608   000F6F                     CANCON          equ	3951	;# 
  1609   000F70                     BRGCON1         equ	3952	;# 
  1610   000F71                     BRGCON2         equ	3953	;# 
  1611   000F72                     BRGCON3         equ	3954	;# 
  1612   000F73                     CIOCON          equ	3955	;# 
  1613   000F74                     COMSTAT         equ	3956	;# 
  1614   000F75                     RXERRCNT        equ	3957	;# 
  1615   000F76                     TXERRCNT        equ	3958	;# 
  1616   000F77                     ECANCON         equ	3959	;# 
  1617   000F80                     PORTA           equ	3968	;# 
  1618   000F81                     PORTB           equ	3969	;# 
  1619   000F82                     PORTC           equ	3970	;# 
  1620   000F83                     PORTD           equ	3971	;# 
  1621   000F84                     PORTE           equ	3972	;# 
  1622   000F89                     LATA            equ	3977	;# 
  1623   000F8A                     LATB            equ	3978	;# 
  1624   000F8B                     LATC            equ	3979	;# 
  1625   000F8C                     LATD            equ	3980	;# 
  1626   000F8D                     LATE            equ	3981	;# 
  1627   000F92                     TRISA           equ	3986	;# 
  1628   000F92                     DDRA            equ	3986	;# 
  1629   000F93                     TRISB           equ	3987	;# 
  1630   000F93                     DDRB            equ	3987	;# 
  1631   000F94                     TRISC           equ	3988	;# 
  1632   000F94                     DDRC            equ	3988	;# 
  1633   000F95                     TRISD           equ	3989	;# 
  1634   000F95                     DDRD            equ	3989	;# 
  1635   000F96                     TRISE           equ	3990	;# 
  1636   000F96                     DDRE            equ	3990	;# 
  1637   000F9B                     OSCTUNE         equ	3995	;# 
  1638   000F9D                     PIE1            equ	3997	;# 
  1639   000F9E                     PIR1            equ	3998	;# 
  1640   000F9F                     IPR1            equ	3999	;# 
  1641   000FA0                     PIE2            equ	4000	;# 
  1642   000FA1                     PIR2            equ	4001	;# 
  1643   000FA2                     IPR2            equ	4002	;# 
  1644   000FA3                     PIE3            equ	4003	;# 
  1645   000FA4                     PIR3            equ	4004	;# 
  1646   000FA5                     IPR3            equ	4005	;# 
  1647   000FA6                     EECON1          equ	4006	;# 
  1648   000FA7                     EECON2          equ	4007	;# 
  1649   000FA8                     EEDATA          equ	4008	;# 
  1650   000FA9                     EEADR           equ	4009	;# 
  1651   000FAB                     RCSTA           equ	4011	;# 
  1652   000FAB                     RCSTA1          equ	4011	;# 
  1653   000FAC                     TXSTA           equ	4012	;# 
  1654   000FAC                     TXSTA1          equ	4012	;# 
  1655   000FAD                     TXREG           equ	4013	;# 
  1656   000FAD                     TXREG1          equ	4013	;# 
  1657   000FAE                     RCREG           equ	4014	;# 
  1658   000FAE                     RCREG1          equ	4014	;# 
  1659   000FAF                     SPBRG           equ	4015	;# 
  1660   000FAF                     SPBRG1          equ	4015	;# 
  1661   000FB0                     SPBRGH          equ	4016	;# 
  1662   000FB1                     T3CON           equ	4017	;# 
  1663   000FB2                     TMR3            equ	4018	;# 
  1664   000FB2                     TMR3L           equ	4018	;# 
  1665   000FB3                     TMR3H           equ	4019	;# 
  1666   000FB4                     CMCON           equ	4020	;# 
  1667   000FB5                     CVRCON          equ	4021	;# 
  1668   000FB6                     ECCP1AS         equ	4022	;# 
  1669   000FB7                     ECCP1DEL        equ	4023	;# 
  1670   000FB8                     BAUDCON         equ	4024	;# 
  1671   000FB8                     BAUDCTL         equ	4024	;# 
  1672   000FBA                     ECCP1CON        equ	4026	;# 
  1673   000FBB                     ECCPR1          equ	4027	;# 
  1674   000FBB                     ECCPR1L         equ	4027	;# 
  1675   000FBC                     ECCPR1H         equ	4028	;# 
  1676   000FBD                     CCP1CON         equ	4029	;# 
  1677   000FBE                     CCPR1           equ	4030	;# 
  1678   000FBE                     CCPR1L          equ	4030	;# 
  1679   000FBF                     CCPR1H          equ	4031	;# 
  1680   000FC0                     ADCON2          equ	4032	;# 
  1681   000FC1                     ADCON1          equ	4033	;# 
  1682   000FC2                     ADCON0          equ	4034	;# 
  1683   000FC3                     ADRES           equ	4035	;# 
  1684   000FC3                     ADRESL          equ	4035	;# 
  1685   000FC4                     ADRESH          equ	4036	;# 
  1686   000FC5                     SSPCON2         equ	4037	;# 
  1687   000FC6                     SSPCON1         equ	4038	;# 
  1688   000FC7                     SSPSTAT         equ	4039	;# 
  1689   000FC8                     SSPADD          equ	4040	;# 
  1690   000FC9                     SSPBUF          equ	4041	;# 
  1691   000FCA                     T2CON           equ	4042	;# 
  1692   000FCB                     PR2             equ	4043	;# 
  1693   000FCB                     MEMCON          equ	4043	;# 
  1694   000FCC                     TMR2            equ	4044	;# 
  1695   000FCD                     T1CON           equ	4045	;# 
  1696   000FCE                     TMR1            equ	4046	;# 
  1697   000FCE                     TMR1L           equ	4046	;# 
  1698   000FCF                     TMR1H           equ	4047	;# 
  1699   000FD0                     RCON            equ	4048	;# 
  1700   000FD1                     WDTCON          equ	4049	;# 
  1701   000FD2                     HLVDCON         equ	4050	;# 
  1702   000FD2                     LVDCON          equ	4050	;# 
  1703   000FD3                     OSCCON          equ	4051	;# 
  1704   000FD5                     T0CON           equ	4053	;# 
  1705   000FD6                     TMR0            equ	4054	;# 
  1706   000FD6                     TMR0L           equ	4054	;# 
  1707   000FD7                     TMR0H           equ	4055	;# 
  1708   000FD8                     STATUS          equ	4056	;# 
  1709   000FD9                     FSR2            equ	4057	;# 
  1710   000FD9                     FSR2L           equ	4057	;# 
  1711   000FDA                     FSR2H           equ	4058	;# 
  1712   000FDB                     PLUSW2          equ	4059	;# 
  1713   000FDC                     PREINC2         equ	4060	;# 
  1714   000FDD                     POSTDEC2        equ	4061	;# 
  1715   000FDE                     POSTINC2        equ	4062	;# 
  1716   000FDF                     INDF2           equ	4063	;# 
  1717   000FE0                     BSR             equ	4064	;# 
  1718   000FE1                     FSR1            equ	4065	;# 
  1719   000FE1                     FSR1L           equ	4065	;# 
  1720   000FE2                     FSR1H           equ	4066	;# 
  1721   000FE3                     PLUSW1          equ	4067	;# 
  1722   000FE4                     PREINC1         equ	4068	;# 
  1723   000FE5                     POSTDEC1        equ	4069	;# 
  1724   000FE6                     POSTINC1        equ	4070	;# 
  1725   000FE7                     INDF1           equ	4071	;# 
  1726   000FE8                     WREG            equ	4072	;# 
  1727   000FE9                     FSR0            equ	4073	;# 
  1728   000FE9                     FSR0L           equ	4073	;# 
  1729   000FEA                     FSR0H           equ	4074	;# 
  1730   000FEB                     PLUSW0          equ	4075	;# 
  1731   000FEC                     PREINC0         equ	4076	;# 
  1732   000FED                     POSTDEC0        equ	4077	;# 
  1733   000FEE                     POSTINC0        equ	4078	;# 
  1734   000FEF                     INDF0           equ	4079	;# 
  1735   000FF0                     INTCON3         equ	4080	;# 
  1736   000FF1                     INTCON2         equ	4081	;# 
  1737   000FF2                     INTCON          equ	4082	;# 
  1738   000FF3                     PROD            equ	4083	;# 
  1739   000FF3                     PRODL           equ	4083	;# 
  1740   000FF4                     PRODH           equ	4084	;# 
  1741   000FF5                     TABLAT          equ	4085	;# 
  1742   000FF6                     TBLPTR          equ	4086	;# 
  1743   000FF6                     TBLPTRL         equ	4086	;# 
  1744   000FF7                     TBLPTRH         equ	4087	;# 
  1745   000FF8                     TBLPTRU         equ	4088	;# 
  1746   000FF9                     PCLAT           equ	4089	;# 
  1747   000FF9                     PC              equ	4089	;# 
  1748   000FF9                     PCL             equ	4089	;# 
  1749   000FFA                     PCLATH          equ	4090	;# 
  1750   000FFB                     PCLATU          equ	4091	;# 
  1751   000FFC                     STKPTR          equ	4092	;# 
  1752   000FFD                     TOS             equ	4093	;# 
  1753   000FFD                     TOSL            equ	4093	;# 
  1754   000FFE                     TOSH            equ	4094	;# 
  1755   000FFF                     TOSU            equ	4095	;# 
  1756                           
  1757                           	psect	idataCOMRAM
  1758   003000                     __pidataCOMRAM:
  1759                           	callstack 0
  1760                           
  1761                           ;initializer for read_digital_keypad@once
  1762   003000  01                 	db	1
  1763   000DD4                     _RXFCON0        set	3540
  1764   000F45                     _TXB0DLC        set	3909
  1765   000F44                     _TXB0EIDL       set	3908
  1766   000F43                     _TXB0EIDH       set	3907
  1767   000F41                     _TXB0SIDH       set	3905
  1768   000F42                     _TXB0SIDL       set	3906
  1769   000F46                     _TXB0D0         set	3910
  1770   007A03                     _TXB0REQ        set	31235
  1771   000F82                     _PORTC          set	3970
  1772   000F94                     _TRISC          set	3988
  1773   000FC2                     _ADCON0         set	4034
  1774   000FC3                     _ADRESL         set	4035
  1775   000FC4                     _ADRESH         set	4036
  1776   000F65                     _RXB0DLC        set	3941
  1777   000F61                     _RXB0SIDH       set	3937
  1778   000F62                     _RXB0SIDL       set	3938
  1779   000F60                     _RXB0CONbits    set	3936
  1780   000F60                     _RXB0CON        set	3936
  1781   000F72                     _BRGCON3        set	3954
  1782   000F71                     _BRGCON2        set	3953
  1783   000F70                     _BRGCON1        set	3952
  1784   000F77                     _ECANCON        set	3959
  1785   000F6E                     _CANSTAT        set	3950
  1786   000F6F                     _CANCON         set	3951
  1787   000F66                     _RXB0D0         set	3942
  1788   007E11                     _GO             set	32273
  1789   007E10                     _ADON           set	32272
  1790   007E0C                     _VCFG0          set	32268
  1791   007E0D                     _VCFG1          set	32269
  1792   007E11                     _GODONE         set	32273
  1793   007E02                     _ADCS2          set	32258
  1794   007E01                     _ADCS1          set	32257
  1795   007E00                     _ADCS0          set	32256
  1796   007E03                     _ACQT0          set	32259
  1797   007E04                     _ACQT1          set	32260
  1798   007E05                     _ACQT2          set	32261
  1799   007E07                     _ADFM           set	32263
  1800   007D20                     _RXB0IF         set	32032
  1801   007B07                     _RXB0FUL        set	31495
  1802   007C9B                     _TRISB3         set	31899
  1803   007C9A                     _TRISB2         set	31898
  1804                           
  1805                           ; #config settings
  1806                           
  1807                           	psect	cinit
  1808   000F8C                     __pcinit:
  1809                           	callstack 0
  1810   000F8C                     start_initialization:
  1811                           	callstack 0
  1812   000F8C                     __initialization:
  1813                           	callstack 0
  1814                           
  1815                           ; Initialize objects allocated to COMRAM (1 bytes)
  1816                           ; load TBLPTR registers with __pidataCOMRAM
  1817   000F8C  0E00               	movlw	low __pidataCOMRAM
  1818   000F8E  6EF6               	movwf	tblptrl,c
  1819   000F90  0E30               	movlw	high __pidataCOMRAM
  1820   000F92  6EF7               	movwf	tblptrh,c
  1821   000F94  0E00               	movlw	low (__pidataCOMRAM shr (0+16))
  1822   000F96  6EF8               	movwf	tblptru,c
  1823   000F98  0009               	tblrd		*+	;fetch initializer
  1824   000F9A  CFF5 F038          	movff	tablat,__pdataCOMRAM
  1825                           
  1826                           ; Clear objects allocated to COMRAM (1 bytes)
  1827   000F9E  6A37               	clrf	__pbssCOMRAM& (0+255),c
  1828   000FA0                     end_of_initialization:
  1829                           	callstack 0
  1830   000FA0                     __end_of__initialization:
  1831                           	callstack 0
  1832   000FA0  0100               	movlb	0
  1833   000FA2  EF1E  F007         	goto	_main	;jump to C main() function
  1834                           
  1835                           	psect	bssCOMRAM
  1836   000037                     __pbssCOMRAM:
  1837                           	callstack 0
  1838   000037                     change_gear@gear_index:
  1839                           	callstack 0
  1840   000037                     	ds	1
  1841                           
  1842                           	psect	dataCOMRAM
  1843   000038                     __pdataCOMRAM:
  1844                           	callstack 0
  1845   000038                     read_digital_keypad@once:
  1846                           	callstack 0
  1847   000038                     	ds	1
  1848                           
  1849                           	psect	cstackCOMRAM
  1850   000001                     __pcstackCOMRAM:
  1851                           	callstack 0
  1852   000001                     ?_read_adc:
  1853                           	callstack 0
  1854   000001                     ?___xxtofl:
  1855                           	callstack 0
  1856   000001                     read_digital_keypad@detection_type:
  1857                           	callstack 0
  1858   000001                     set_msg_id_std@id:
  1859                           	callstack 0
  1860   000001                     delay@factor:
  1861                           	callstack 0
  1862   000001                     ___xxtofl@val:
  1863                           	callstack 0
  1864   000001                     
  1865                           ; 1 bytes @ 0x0
  1866   000001                     	ds	1
  1867   000002                     change_gear@key:
  1868                           	callstack 0
  1869   000002                     
  1870                           ; 1 bytes @ 0x1
  1871   000002                     	ds	1
  1872   000003                     delay@i:
  1873                           	callstack 0
  1874   000003                     ??_read_adc:
  1875   000003                     ??_set_msg_id_std:
  1876                           
  1877                           ; 1 bytes @ 0x2
  1878   000003                     	ds	2
  1879   000005                     can_transmit@msg_id:
  1880                           	callstack 0
  1881   000005                     read_adc@reg_val:
  1882                           	callstack 0
  1883   000005                     ??___xxtofl:
  1884                           
  1885                           ; 1 bytes @ 0x4
  1886   000005                     	ds	2
  1887   000007                     can_transmit@data:
  1888                           	callstack 0
  1889   000007                     read_adc@channel:
  1890                           	callstack 0
  1891                           
  1892                           ; 1 bytes @ 0x6
  1893   000007                     	ds	1
  1894   000008                     can_transmit@len:
  1895                           	callstack 0
  1896                           
  1897                           ; 1 bytes @ 0x7
  1898   000008                     	ds	1
  1899   000009                     ___xxtofl@sign:
  1900                           	callstack 0
  1901   000009                     ??_can_transmit:
  1902                           
  1903                           ; 1 bytes @ 0x8
  1904   000009                     	ds	1
  1905   00000A                     ___xxtofl@exp:
  1906                           	callstack 0
  1907                           
  1908                           ; 1 bytes @ 0x9
  1909   00000A                     	ds	1
  1910   00000B                     ___xxtofl@arg:
  1911                           	callstack 0
  1912                           
  1913                           ; 4 bytes @ 0xA
  1914   00000B                     	ds	1
  1915   00000C                     can_transmit@ptr:
  1916                           	callstack 0
  1917                           
  1918                           ; 2 bytes @ 0xB
  1919   00000C                     	ds	2
  1920   00000E                     can_transmit@i:
  1921                           	callstack 0
  1922                           
  1923                           ; 2 bytes @ 0xD
  1924   00000E                     	ds	1
  1925   00000F                     ?___fldiv:
  1926                           	callstack 0
  1927   00000F                     ___fldiv@b:
  1928                           	callstack 0
  1929                           
  1930                           ; 4 bytes @ 0xE
  1931   00000F                     	ds	4
  1932   000013                     ___fldiv@a:
  1933                           	callstack 0
  1934                           
  1935                           ; 4 bytes @ 0x12
  1936   000013                     	ds	4
  1937   000017                     ??___fldiv:
  1938                           
  1939                           ; 1 bytes @ 0x16
  1940   000017                     	ds	4
  1941   00001B                     ___fldiv@rem:
  1942                           	callstack 0
  1943                           
  1944                           ; 4 bytes @ 0x1A
  1945   00001B                     	ds	4
  1946   00001F                     ___fldiv@sign:
  1947                           	callstack 0
  1948                           
  1949                           ; 1 bytes @ 0x1E
  1950   00001F                     	ds	1
  1951   000020                     ___fldiv@new_exp:
  1952                           	callstack 0
  1953                           
  1954                           ; 2 bytes @ 0x1F
  1955   000020                     	ds	2
  1956   000022                     ___fldiv@grs:
  1957                           	callstack 0
  1958                           
  1959                           ; 4 bytes @ 0x21
  1960   000022                     	ds	4
  1961   000026                     ___fldiv@bexp:
  1962                           	callstack 0
  1963                           
  1964                           ; 1 bytes @ 0x25
  1965   000026                     	ds	1
  1966   000027                     ___fldiv@aexp:
  1967                           	callstack 0
  1968                           
  1969                           ; 1 bytes @ 0x26
  1970   000027                     	ds	1
  1971   000028                     ?___fltol:
  1972                           	callstack 0
  1973   000028                     ___fltol@f1:
  1974                           	callstack 0
  1975                           
  1976                           ; 4 bytes @ 0x27
  1977   000028                     	ds	4
  1978   00002C                     ??___fltol:
  1979                           
  1980                           ; 1 bytes @ 0x2B
  1981   00002C                     	ds	4
  1982   000030                     ___fltol@sign1:
  1983                           	callstack 0
  1984                           
  1985                           ; 1 bytes @ 0x2F
  1986   000030                     	ds	1
  1987   000031                     ___fltol@exp1:
  1988                           	callstack 0
  1989                           
  1990                           ; 1 bytes @ 0x30
  1991   000031                     	ds	1
  1992   000032                     get_speed@adc_val:
  1993                           	callstack 0
  1994   000032                     
  1995                           ; 1 bytes @ 0x31
  1996   000032                     	ds	2
  1997   000034                     get_speed@speed:
  1998                           	callstack 0
  1999                           
  2000                           ; 1 bytes @ 0x33
  2001   000034                     	ds	1
  2002   000035                     main@speed:
  2003                           	callstack 0
  2004   000035                     
  2005                           ; 1 bytes @ 0x34
  2006   000035                     	ds	1
  2007   000036                     main@curr_gear:
  2008                           	callstack 0
  2009                           
  2010                           ; 1 bytes @ 0x35
  2011   000036                     	ds	1
  2012                           
  2013 ;;
  2014 ;;Main: autosize = 0, tempsize = 0, incstack = 0, save=0
  2015 ;;
  2016 ;; *************** function _main *****************
  2017 ;; Defined at:
  2018 ;;		line 16 in file "main.c"
  2019 ;; Parameters:    Size  Location     Type
  2020 ;;		None
  2021 ;; Auto vars:     Size  Location     Type
  2022 ;;  curr_gear       1   53[COMRAM] unsigned char 
  2023 ;;  speed           1   52[COMRAM] unsigned char 
  2024 ;; Return value:  Size  Location     Type
  2025 ;;                  1    wreg      void 
  2026 ;; Registers used:
  2027 ;;		wreg, fsr1l, fsr1h, fsr2l, fsr2h, status,2, status,0, cstack
  2028 ;; Tracked objects:
  2029 ;;		On entry : 0/0
  2030 ;;		On exit  : 0/0
  2031 ;;		Unchanged: 0/0
  2032 ;; Data sizes:     COMRAM   BANK0   BANK1   BANK2   BANK3   BANK4   BANK5
  2033 ;;      Params:         0       0       0       0       0       0       0
  2034 ;;      Locals:         2       0       0       0       0       0       0
  2035 ;;      Temps:          0       0       0       0       0       0       0
  2036 ;;      Totals:         2       0       0       0       0       0       0
  2037 ;;Total ram usage:        2 bytes
  2038 ;; Hardware stack levels required when called: 2
  2039 ;; This function calls:
  2040 ;;		_can_transmit
  2041 ;;		_change_gear
  2042 ;;		_delay
  2043 ;;		_get_speed
  2044 ;;		_init_config
  2045 ;; This function is called by:
  2046 ;;		Startup code after reset
  2047 ;; This function uses a non-reentrant model
  2048 ;;
  2049                           
  2050                           	psect	text0
  2051   000E3C                     __ptext0:
  2052                           	callstack 0
  2053   000E3C                     _main:
  2054                           	callstack 29
  2055   000E3C                     
  2056                           ;main.c: 18:     init_config();
  2057   000E3C  ECD3  F007         	call	_init_config	;wreg free
  2058   000E40                     l99:
  2059                           
  2060                           ;main.c: 21:     {;main.c: 22:         unsigned char speed = get_speed();
  2061   000E40  ECEE  F006         	call	_get_speed	;wreg free
  2062   000E44  6E35               	movwf	main@speed^0,c
  2063   000E46                     
  2064                           ;main.c: 23:         can_transmit( 0x10 , &speed, 1);
  2065   000E46  6A06               	clrf	(can_transmit@msg_id+1)^0,c
  2066   000E48  0E10               	movlw	16
  2067   000E4A  6E05               	movwf	can_transmit@msg_id^0,c
  2068   000E4C  0E35               	movlw	low main@speed
  2069   000E4E  6E07               	movwf	can_transmit@data^0,c
  2070   000E50  0E01               	movlw	1
  2071   000E52  6E08               	movwf	can_transmit@len^0,c
  2072   000E54  ECB7  F006         	call	_can_transmit	;wreg free
  2073   000E58                     
  2074                           ;main.c: 24:         delay(100 );
  2075   000E58  6A02               	clrf	(delay@factor+1)^0,c
  2076   000E5A  0E64               	movlw	100
  2077   000E5C  6E01               	movwf	delay@factor^0,c
  2078   000E5E  ECA5  F007         	call	_delay	;wreg free
  2079   000E62                     
  2080                           ;main.c: 26:         unsigned char curr_gear = change_gear();
  2081   000E62  EC25  F006         	call	_change_gear	;wreg free
  2082   000E66  6E36               	movwf	main@curr_gear^0,c
  2083   000E68                     
  2084                           ;main.c: 27:         can_transmit( 0x20 , &curr_gear, 1 );
  2085   000E68  6A06               	clrf	(can_transmit@msg_id+1)^0,c
  2086   000E6A  0E20               	movlw	32
  2087   000E6C  6E05               	movwf	can_transmit@msg_id^0,c
  2088   000E6E  0E36               	movlw	low main@curr_gear
  2089   000E70  6E07               	movwf	can_transmit@data^0,c
  2090   000E72  0E01               	movlw	1
  2091   000E74  6E08               	movwf	can_transmit@len^0,c
  2092   000E76  ECB7  F006         	call	_can_transmit	;wreg free
  2093                           
  2094                           ;main.c: 28:         delay(200 );
  2095   000E7A  6A02               	clrf	(delay@factor+1)^0,c
  2096   000E7C  0EC8               	movlw	200
  2097   000E7E  6E01               	movwf	delay@factor^0,c
  2098   000E80  ECA5  F007         	call	_delay	;wreg free
  2099   000E84  EF20  F007         	goto	l99
  2100   000E88  EFFE  F017         	goto	start
  2101   000E8C                     __end_of_main:
  2102                           	callstack 0
  2103                           
  2104 ;; *************** function _init_config *****************
  2105 ;; Defined at:
  2106 ;;		line 9 in file "main.c"
  2107 ;; Parameters:    Size  Location     Type
  2108 ;;		None
  2109 ;; Auto vars:     Size  Location     Type
  2110 ;;		None
  2111 ;; Return value:  Size  Location     Type
  2112 ;;                  1    wreg      void 
  2113 ;; Registers used:
  2114 ;;		wreg, status,2, status,0, cstack
  2115 ;; Tracked objects:
  2116 ;;		On entry : 0/0
  2117 ;;		On exit  : 0/0
  2118 ;;		Unchanged: 0/0
  2119 ;; Data sizes:     COMRAM   BANK0   BANK1   BANK2   BANK3   BANK4   BANK5
  2120 ;;      Params:         0       0       0       0       0       0       0
  2121 ;;      Locals:         0       0       0       0       0       0       0
  2122 ;;      Temps:          0       0       0       0       0       0       0
  2123 ;;      Totals:         0       0       0       0       0       0       0
  2124 ;;Total ram usage:        0 bytes
  2125 ;; Hardware stack levels used: 1
  2126 ;; Hardware stack levels required when called: 1
  2127 ;; This function calls:
  2128 ;;		_init_adc
  2129 ;;		_init_can
  2130 ;;		_init_digital_keypad
  2131 ;; This function is called by:
  2132 ;;		_main
  2133 ;; This function uses a non-reentrant model
  2134 ;;
  2135                           
  2136                           	psect	text1
  2137   000FA6                     __ptext1:
  2138                           	callstack 0
  2139   000FA6                     _init_config:
  2140                           	callstack 29
  2141   000FA6                     
  2142                           ;main.c: 11:     init_adc();
  2143   000FA6  ECB8  F007         	call	_init_adc	;wreg free
  2144   000FAA                     
  2145                           ;main.c: 12:     init_can();
  2146   000FAA  EC69  F007         	call	_init_can	;wreg free
  2147   000FAE                     
  2148                           ;main.c: 13:     init_digital_keypad();
  2149   000FAE  ECDA  F007         	call	_init_digital_keypad	;wreg free
  2150   000FB2  0012               	return		;funcret
  2151   000FB4                     __end_of_init_config:
  2152                           	callstack 0
  2153                           
  2154 ;; *************** function _init_digital_keypad *****************
  2155 ;; Defined at:
  2156 ;;		line 5 in file "digital_keypad.c"
  2157 ;; Parameters:    Size  Location     Type
  2158 ;;		None
  2159 ;; Auto vars:     Size  Location     Type
  2160 ;;		None
  2161 ;; Return value:  Size  Location     Type
  2162 ;;                  1    wreg      void 
  2163 ;; Registers used:
  2164 ;;		wreg, status,2, status,0
  2165 ;; Tracked objects:
  2166 ;;		On entry : 0/0
  2167 ;;		On exit  : 0/0
  2168 ;;		Unchanged: 0/0
  2169 ;; Data sizes:     COMRAM   BANK0   BANK1   BANK2   BANK3   BANK4   BANK5
  2170 ;;      Params:         0       0       0       0       0       0       0
  2171 ;;      Locals:         0       0       0       0       0       0       0
  2172 ;;      Temps:          0       0       0       0       0       0       0
  2173 ;;      Totals:         0       0       0       0       0       0       0
  2174 ;;Total ram usage:        0 bytes
  2175 ;; Hardware stack levels used: 1
  2176 ;; This function calls:
  2177 ;;		Nothing
  2178 ;; This function is called by:
  2179 ;;		_init_config
  2180 ;; This function uses a non-reentrant model
  2181 ;;
  2182                           
  2183                           	psect	text2
  2184   000FB4                     __ptext2:
  2185                           	callstack 0
  2186   000FB4                     _init_digital_keypad:
  2187                           	callstack 29
  2188   000FB4                     
  2189                           ;digital_keypad.c: 7:  TRISC = TRISC | 0x0F;
  2190   000FB4  5094               	movf	148,w,c	;volatile
  2191   000FB6  090F               	iorlw	15
  2192   000FB8  6E94               	movwf	148,c	;volatile
  2193   000FBA  0012               	return		;funcret
  2194   000FBC                     __end_of_init_digital_keypad:
  2195                           	callstack 0
  2196                           
  2197 ;; *************** function _init_can *****************
  2198 ;; Defined at:
  2199 ;;		line 13 in file "can.c"
  2200 ;; Parameters:    Size  Location     Type
  2201 ;;		None
  2202 ;; Auto vars:     Size  Location     Type
  2203 ;;		None
  2204 ;; Return value:  Size  Location     Type
  2205 ;;                  1    wreg      void 
  2206 ;; Registers used:
  2207 ;;		wreg, status,2, status,0
  2208 ;; Tracked objects:
  2209 ;;		On entry : 0/0
  2210 ;;		On exit  : 0/0
  2211 ;;		Unchanged: 0/0
  2212 ;; Data sizes:     COMRAM   BANK0   BANK1   BANK2   BANK3   BANK4   BANK5
  2213 ;;      Params:         0       0       0       0       0       0       0
  2214 ;;      Locals:         0       0       0       0       0       0       0
  2215 ;;      Temps:          0       0       0       0       0       0       0
  2216 ;;      Totals:         0       0       0       0       0       0       0
  2217 ;;Total ram usage:        0 bytes
  2218 ;; Hardware stack levels used: 1
  2219 ;; This function calls:
  2220 ;;		Nothing
  2221 ;; This function is called by:
  2222 ;;		_init_config
  2223 ;; This function uses a non-reentrant model
  2224 ;;
  2225                           
  2226                           	psect	text3
  2227   000ED2                     __ptext3:
  2228                           	callstack 0
  2229   000ED2                     _init_can:
  2230                           	callstack 29
  2231   000ED2                     
  2232                           ;can.c: 15:     TRISB2 = 0;
  2233   000ED2  9493               	bcf	3987,2,c	;volatile
  2234                           
  2235                           ;can.c: 16:     TRISB3 = 1;
  2236   000ED4  8693               	bsf	3987,3,c	;volatile
  2237   000ED6                     
  2238                           ;can.c: 19:     { CANCON &= 0x1F; CANCON |= e_can_op_mode_config; };
  2239   000ED6  0E1F               	movlw	31
  2240   000ED8  166F               	andwf	111,f,c	;volatile
  2241   000EDA  8E6F               	bsf	111,7,c	;volatile
  2242   000EDC                     l974:
  2243   000EDC  0E80               	movlw	128
  2244   000EDE  186E               	xorwf	110,w,c	;volatile
  2245   000EE0  A4D8               	btfss	status,2,c
  2246   000EE2  EF75  F007         	goto	u11
  2247   000EE6  EF77  F007         	goto	u10
  2248   000EEA                     u11:
  2249   000EEA  EF6E  F007         	goto	l974
  2250   000EEE                     u10:
  2251   000EEE                     
  2252                           ;can.c: 23:     ECANCON = 0x00;
  2253   000EEE  6A77               	clrf	119,c	;volatile
  2254   000EF0                     
  2255                           ;can.c: 26:     BRGCON1 = 0xE1;
  2256   000EF0  0EE1               	movlw	225
  2257   000EF2  6E70               	movwf	112,c	;volatile
  2258                           
  2259                           ;can.c: 27:     BRGCON2 = 0x1B;
  2260   000EF4  0E1B               	movlw	27
  2261   000EF6  6E71               	movwf	113,c	;volatile
  2262                           
  2263                           ;can.c: 28:     BRGCON3 = 0x03;
  2264   000EF8  0E03               	movlw	3
  2265   000EFA  6E72               	movwf	114,c	;volatile
  2266   000EFC                     
  2267                           ;can.c: 31:     RXFCON0 = 0x00;
  2268   000EFC  010D               	movlb	13	; () banked
  2269   000EFE  6BD4               	clrf	212,b	;volatile
  2270   000F00                     
  2271                           ; BSR set to: 13
  2272                           ;can.c: 34:     { CANCON &= 0x1F; CANCON |= e_can_op_mode_normal; };
  2273   000F00  0E1F               	movlw	31
  2274   000F02  166F               	andwf	111,f,c	;volatile
  2275   000F04                     
  2276                           ; BSR set to: 13
  2277   000F04  506F               	movf	111,w,c	;volatile
  2278   000F06                     
  2279                           ; BSR set to: 13
  2280                           ;can.c: 36:     RXB0CON = 0x00;
  2281   000F06  6A60               	clrf	96,c	;volatile
  2282   000F08                     
  2283                           ; BSR set to: 13
  2284                           ;can.c: 37:     RXB0CONbits.RXM0 = 1;
  2285   000F08  8A60               	bsf	96,5,c	;volatile
  2286   000F0A                     
  2287                           ; BSR set to: 13
  2288                           ;can.c: 38:     RXB0CONbits.RXM1 = 1;
  2289   000F0A  8C60               	bsf	96,6,c	;volatile
  2290   000F0C                     
  2291                           ; BSR set to: 13
  2292   000F0C  0012               	return		;funcret
  2293   000F0E                     __end_of_init_can:
  2294                           	callstack 0
  2295                           
  2296 ;; *************** function _init_adc *****************
  2297 ;; Defined at:
  2298 ;;		line 5 in file "adc.c"
  2299 ;; Parameters:    Size  Location     Type
  2300 ;;		None
  2301 ;; Auto vars:     Size  Location     Type
  2302 ;;		None
  2303 ;; Return value:  Size  Location     Type
  2304 ;;                  1    wreg      void 
  2305 ;; Registers used:
  2306 ;;		None
  2307 ;; Tracked objects:
  2308 ;;		On entry : 0/0
  2309 ;;		On exit  : 0/0
  2310 ;;		Unchanged: 0/0
  2311 ;; Data sizes:     COMRAM   BANK0   BANK1   BANK2   BANK3   BANK4   BANK5
  2312 ;;      Params:         0       0       0       0       0       0       0
  2313 ;;      Locals:         0       0       0       0       0       0       0
  2314 ;;      Temps:          0       0       0       0       0       0       0
  2315 ;;      Totals:         0       0       0       0       0       0       0
  2316 ;;Total ram usage:        0 bytes
  2317 ;; Hardware stack levels used: 1
  2318 ;; This function calls:
  2319 ;;		Nothing
  2320 ;; This function is called by:
  2321 ;;		_init_config
  2322 ;; This function uses a non-reentrant model
  2323 ;;
  2324                           
  2325                           	psect	text4
  2326   000F70                     __ptext4:
  2327                           	callstack 0
  2328   000F70                     _init_adc:
  2329                           	callstack 29
  2330   000F70                     
  2331                           ;adc.c: 8:  ADFM = 1;
  2332   000F70  8EC0               	bsf	4032,7,c	;volatile
  2333                           
  2334                           ;adc.c: 14:  ACQT2 = 0;
  2335   000F72  9AC0               	bcf	4032,5,c	;volatile
  2336                           
  2337                           ;adc.c: 15:  ACQT1 = 1;
  2338   000F74  88C0               	bsf	4032,4,c	;volatile
  2339                           
  2340                           ;adc.c: 16:  ACQT0 = 0;
  2341   000F76  96C0               	bcf	4032,3,c	;volatile
  2342                           
  2343                           ;adc.c: 22:  ADCS0 = 0;
  2344   000F78  90C0               	bcf	4032,0,c	;volatile
  2345                           
  2346                           ;adc.c: 23:  ADCS1 = 1;
  2347   000F7A  82C0               	bsf	4032,1,c	;volatile
  2348                           
  2349                           ;adc.c: 24:  ADCS2 = 0;
  2350   000F7C  94C0               	bcf	4032,2,c	;volatile
  2351                           
  2352                           ;adc.c: 27:  GODONE = 0;
  2353   000F7E  92C2               	bcf	4034,1,c	;volatile
  2354                           
  2355                           ;adc.c: 32:  VCFG1 = 0;
  2356   000F80  9AC1               	bcf	4033,5,c	;volatile
  2357                           
  2358                           ;adc.c: 34:  VCFG0 = 0;
  2359   000F82  98C1               	bcf	4033,4,c	;volatile
  2360                           
  2361                           ;adc.c: 37:  ADRESH = 0;
  2362   000F84  6AC4               	clrf	196,c	;volatile
  2363                           
  2364                           ;adc.c: 38:  ADRESL = 0;
  2365   000F86  6AC3               	clrf	195,c	;volatile
  2366                           
  2367                           ;adc.c: 41:  ADON = 1;
  2368   000F88  80C2               	bsf	4034,0,c	;volatile
  2369   000F8A  0012               	return		;funcret
  2370   000F8C                     __end_of_init_adc:
  2371                           	callstack 0
  2372                           
  2373 ;; *************** function _get_speed *****************
  2374 ;; Defined at:
  2375 ;;		line 32 in file "main.c"
  2376 ;; Parameters:    Size  Location     Type
  2377 ;;		None
  2378 ;; Auto vars:     Size  Location     Type
  2379 ;;  adc_val         2   49[COMRAM] unsigned short 
  2380 ;;  speed           1   51[COMRAM] unsigned char 
  2381 ;; Return value:  Size  Location     Type
  2382 ;;                  1    wreg      unsigned char 
  2383 ;; Registers used:
  2384 ;;		wreg, status,2, status,0, cstack
  2385 ;; Tracked objects:
  2386 ;;		On entry : 0/0
  2387 ;;		On exit  : 0/0
  2388 ;;		Unchanged: 0/0
  2389 ;; Data sizes:     COMRAM   BANK0   BANK1   BANK2   BANK3   BANK4   BANK5
  2390 ;;      Params:         0       0       0       0       0       0       0
  2391 ;;      Locals:         3       0       0       0       0       0       0
  2392 ;;      Temps:          0       0       0       0       0       0       0
  2393 ;;      Totals:         3       0       0       0       0       0       0
  2394 ;;Total ram usage:        3 bytes
  2395 ;; Hardware stack levels used: 1
  2396 ;; Hardware stack levels required when called: 1
  2397 ;; This function calls:
  2398 ;;		___fldiv
  2399 ;;		___fltol
  2400 ;;		___xxtofl
  2401 ;;		_read_adc
  2402 ;; This function is called by:
  2403 ;;		_main
  2404 ;; This function uses a non-reentrant model
  2405 ;;
  2406                           
  2407                           	psect	text5
  2408   000DDC                     __ptext5:
  2409                           	callstack 0
  2410   000DDC                     _get_speed:
  2411                           	callstack 29
  2412   000DDC                     
  2413                           ;main.c: 34:     uint16_t adc_val = read_adc(0x04);
  2414   000DDC  0E04               	movlw	4
  2415   000DDE  EC46  F007         	call	_read_adc
  2416   000DE2  C001  F032         	movff	?_read_adc,get_speed@adc_val
  2417   000DE6  C002  F033         	movff	?_read_adc+1,get_speed@adc_val+1
  2418                           
  2419                           ;main.c: 35:     unsigned char speed = adc_val / 10.23;
  2420   000DEA  0E14               	movlw	20
  2421   000DEC  6E13               	movwf	___fldiv@a^0,c
  2422   000DEE  0EAE               	movlw	174
  2423   000DF0  6E14               	movwf	(___fldiv@a+1)^0,c
  2424   000DF2  0E23               	movlw	35
  2425   000DF4  6E15               	movwf	(___fldiv@a+2)^0,c
  2426   000DF6  0E41               	movlw	65
  2427   000DF8  6E16               	movwf	(___fldiv@a+3)^0,c
  2428   000DFA  C032  F001         	movff	get_speed@adc_val,___xxtofl@val
  2429   000DFE  C033  F002         	movff	get_speed@adc_val+1,___xxtofl@val+1
  2430   000E02  6A03               	clrf	(___xxtofl@val+2)^0,c
  2431   000E04  6A04               	clrf	(___xxtofl@val+3)^0,c
  2432   000E06  0E00               	movlw	0
  2433   000E08  ECC8  F004         	call	___xxtofl
  2434   000E0C  C001  F00F         	movff	?___xxtofl,___fldiv@b
  2435   000E10  C002  F010         	movff	?___xxtofl+1,___fldiv@b+1
  2436   000E14  C003  F011         	movff	?___xxtofl+2,___fldiv@b+2
  2437   000E18  C004  F012         	movff	?___xxtofl+3,___fldiv@b+3
  2438   000E1C  EC01  F003         	call	___fldiv	;wreg free
  2439   000E20  C00F  F028         	movff	?___fldiv,___fltol@f1
  2440   000E24  C010  F029         	movff	?___fldiv+1,___fltol@f1+1
  2441   000E28  C011  F02A         	movff	?___fldiv+2,___fltol@f1+2
  2442   000E2C  C012  F02B         	movff	?___fldiv+3,___fltol@f1+3
  2443   000E30  ECA2  F005         	call	___fltol	;wreg free
  2444   000E34  5028               	movf	?___fltol^0,w,c
  2445   000E36  6E34               	movwf	get_speed@speed^0,c
  2446   000E38                     
  2447                           ;main.c: 37:     return speed;
  2448   000E38  5034               	movf	get_speed@speed^0,w,c
  2449   000E3A  0012               	return		;funcret
  2450   000E3C                     __end_of_get_speed:
  2451                           	callstack 0
  2452                           
  2453 ;; *************** function _read_adc *****************
  2454 ;; Defined at:
  2455 ;;		line 44 in file "adc.c"
  2456 ;; Parameters:    Size  Location     Type
  2457 ;;  channel         1    wreg     unsigned char 
  2458 ;; Auto vars:     Size  Location     Type
  2459 ;;  channel         1    6[COMRAM] unsigned char 
  2460 ;;  reg_val         2    4[COMRAM] unsigned short 
  2461 ;; Return value:  Size  Location     Type
  2462 ;;                  2    0[COMRAM] unsigned short 
  2463 ;; Registers used:
  2464 ;;		wreg, status,2, status,0
  2465 ;; Tracked objects:
  2466 ;;		On entry : 0/0
  2467 ;;		On exit  : 0/0
  2468 ;;		Unchanged: 0/0
  2469 ;; Data sizes:     COMRAM   BANK0   BANK1   BANK2   BANK3   BANK4   BANK5
  2470 ;;      Params:         2       0       0       0       0       0       0
  2471 ;;      Locals:         3       0       0       0       0       0       0
  2472 ;;      Temps:          2       0       0       0       0       0       0
  2473 ;;      Totals:         7       0       0       0       0       0       0
  2474 ;;Total ram usage:        7 bytes
  2475 ;; Hardware stack levels used: 1
  2476 ;; This function calls:
  2477 ;;		Nothing
  2478 ;; This function is called by:
  2479 ;;		_get_speed
  2480 ;; This function uses a non-reentrant model
  2481 ;;
  2482                           
  2483                           	psect	text6
  2484   000E8C                     __ptext6:
  2485                           	callstack 0
  2486   000E8C                     _read_adc:
  2487                           	callstack 29
  2488                           
  2489                           ;incstack = 0
  2490                           ;read_adc@channel stored from wreg
  2491   000E8C  6E07               	movwf	read_adc@channel^0,c
  2492   000E8E                     
  2493                           ;adc.c: 44: unsigned short read_adc(unsigned char channel);adc.c: 45: {;adc.c: 46:  unsi
      +                          gned short reg_val;;adc.c: 49:  ADCON0 = (ADCON0 & 0xC3) | (channel << 2);
  2494   000E8E  C007  F003         	movff	read_adc@channel,??_read_adc
  2495   000E92  90D8               	bcf	status,0,c
  2496   000E94  3603               	rlcf	??_read_adc^0,f,c
  2497   000E96  90D8               	bcf	status,0,c
  2498   000E98  3603               	rlcf	??_read_adc^0,f,c
  2499   000E9A  50C2               	movf	194,w,c	;volatile
  2500   000E9C  0BC3               	andlw	195
  2501   000E9E  1003               	iorwf	??_read_adc^0,w,c
  2502   000EA0  6EC2               	movwf	194,c	;volatile
  2503   000EA2                     
  2504                           ;adc.c: 52:  GO = 1;
  2505   000EA2  82C2               	bsf	4034,1,c	;volatile
  2506   000EA4                     l161:
  2507   000EA4  B2C2               	btfsc	4034,1,c	;volatile
  2508   000EA6  EF57  F007         	goto	u621
  2509   000EAA  EF59  F007         	goto	u620
  2510   000EAE                     u621:
  2511   000EAE  EF52  F007         	goto	l161
  2512   000EB2                     u620:
  2513   000EB2                     
  2514                           ;adc.c: 54:  reg_val = (ADRESH << 8) | ADRESL;
  2515   000EB2  50C3               	movf	195,w,c	;volatile
  2516   000EB4  CFC4 F003          	movff	4036,??_read_adc	;volatile
  2517   000EB8  6A04               	clrf	(??_read_adc+1)^0,c
  2518   000EBA  C003  F004         	movff	??_read_adc,??_read_adc+1
  2519   000EBE  6A03               	clrf	??_read_adc^0,c
  2520   000EC0  1003               	iorwf	??_read_adc^0,w,c
  2521   000EC2  6E05               	movwf	read_adc@reg_val^0,c
  2522   000EC4  5004               	movf	(??_read_adc+1)^0,w,c
  2523   000EC6  6E06               	movwf	(read_adc@reg_val+1)^0,c
  2524   000EC8                     
  2525                           ;adc.c: 56:  return reg_val;
  2526   000EC8  C005  F001         	movff	read_adc@reg_val,?_read_adc
  2527   000ECC  C006  F002         	movff	read_adc@reg_val+1,?_read_adc+1
  2528   000ED0  0012               	return		;funcret
  2529   000ED2                     __end_of_read_adc:
  2530                           	callstack 0
  2531                           
  2532 ;; *************** function ___xxtofl *****************
  2533 ;; Defined at:
  2534 ;;		line 10 in file "C:\Program Files\Microchip\xc8\v3.10\pic\sources\c99\common\xxtofl.c"
  2535 ;; Parameters:    Size  Location     Type
  2536 ;;  sign            1    wreg     unsigned char 
  2537 ;;  val             4    0[COMRAM] long 
  2538 ;; Auto vars:     Size  Location     Type
  2539 ;;  sign            1    8[COMRAM] unsigned char 
  2540 ;;  arg             4   10[COMRAM] unsigned long 
  2541 ;;  exp             1    9[COMRAM] unsigned char 
  2542 ;; Return value:  Size  Location     Type
  2543 ;;                  4    0[COMRAM] unsigned char 
  2544 ;; Registers used:
  2545 ;;		wreg, status,2, status,0
  2546 ;; Tracked objects:
  2547 ;;		On entry : 0/0
  2548 ;;		On exit  : 0/0
  2549 ;;		Unchanged: 0/0
  2550 ;; Data sizes:     COMRAM   BANK0   BANK1   BANK2   BANK3   BANK4   BANK5
  2551 ;;      Params:         4       0       0       0       0       0       0
  2552 ;;      Locals:         6       0       0       0       0       0       0
  2553 ;;      Temps:          4       0       0       0       0       0       0
  2554 ;;      Totals:        14       0       0       0       0       0       0
  2555 ;;Total ram usage:       14 bytes
  2556 ;; Hardware stack levels used: 1
  2557 ;; This function calls:
  2558 ;;		Nothing
  2559 ;; This function is called by:
  2560 ;;		_get_speed
  2561 ;; This function uses a non-reentrant model
  2562 ;;
  2563                           
  2564                           	psect	text7
  2565   000990                     __ptext7:
  2566                           	callstack 0
  2567   000990                     ___xxtofl:
  2568                           	callstack 29
  2569                           
  2570                           ;incstack = 0
  2571                           ;___xxtofl@sign stored from wreg
  2572   000990  6E09               	movwf	___xxtofl@sign^0,c
  2573   000992  5009               	movf	___xxtofl@sign^0,w,c
  2574   000994  B4D8               	btfsc	status,2,c
  2575   000996  EFCF  F004         	goto	u931
  2576   00099A  EFD1  F004         	goto	u930
  2577   00099E                     u931:
  2578   00099E  EFF3  F004         	goto	l950
  2579   0009A2                     u930:
  2580   0009A2  BE04               	btfsc	(___xxtofl@val+3)^0,7,c
  2581   0009A4  EFD8  F004         	goto	u940
  2582   0009A8  EFD6  F004         	goto	u941
  2583   0009AC                     u941:
  2584   0009AC  EFF3  F004         	goto	l950
  2585   0009B0                     u940:
  2586   0009B0  C001  F005         	movff	___xxtofl@val,??___xxtofl
  2587   0009B4  C002  F006         	movff	___xxtofl@val+1,??___xxtofl+1
  2588   0009B8  C003  F007         	movff	___xxtofl@val+2,??___xxtofl+2
  2589   0009BC  C004  F008         	movff	___xxtofl@val+3,??___xxtofl+3
  2590   0009C0  1E05               	comf	??___xxtofl^0,f,c
  2591   0009C2  1E06               	comf	(??___xxtofl+1)^0,f,c
  2592   0009C4  1E07               	comf	(??___xxtofl+2)^0,f,c
  2593   0009C6  1E08               	comf	(??___xxtofl+3)^0,f,c
  2594   0009C8  2A05               	incf	??___xxtofl^0,f,c
  2595   0009CA  0E00               	movlw	0
  2596   0009CC  2206               	addwfc	(??___xxtofl+1)^0,f,c
  2597   0009CE  2207               	addwfc	(??___xxtofl+2)^0,f,c
  2598   0009D0  2208               	addwfc	(??___xxtofl+3)^0,f,c
  2599   0009D2  C005  F00B         	movff	??___xxtofl,___xxtofl@arg
  2600   0009D6  C006  F00C         	movff	??___xxtofl+1,___xxtofl@arg+1
  2601   0009DA  C007  F00D         	movff	??___xxtofl+2,___xxtofl@arg+2
  2602   0009DE  C008  F00E         	movff	??___xxtofl+3,___xxtofl@arg+3
  2603   0009E2  EFFB  F004         	goto	l1556
  2604   0009E6                     l950:
  2605   0009E6  C001  F00B         	movff	___xxtofl@val,___xxtofl@arg
  2606   0009EA  C002  F00C         	movff	___xxtofl@val+1,___xxtofl@arg+1
  2607   0009EE  C003  F00D         	movff	___xxtofl@val+2,___xxtofl@arg+2
  2608   0009F2  C004  F00E         	movff	___xxtofl@val+3,___xxtofl@arg+3
  2609   0009F6                     l1556:
  2610   0009F6  5001               	movf	___xxtofl@val^0,w,c
  2611   0009F8  1002               	iorwf	(___xxtofl@val+1)^0,w,c
  2612   0009FA  1003               	iorwf	(___xxtofl@val+2)^0,w,c
  2613   0009FC  1004               	iorwf	(___xxtofl@val+3)^0,w,c
  2614   0009FE  A4D8               	btfss	status,2,c
  2615   000A00  EF04  F005         	goto	u951
  2616   000A04  EF06  F005         	goto	u950
  2617   000A08                     u951:
  2618   000A08  EF10  F005         	goto	l1562
  2619   000A0C                     u950:
  2620   000A0C  0E00               	movlw	0
  2621   000A0E  6E01               	movwf	?___xxtofl^0,c
  2622   000A10  0E00               	movlw	0
  2623   000A12  6E02               	movwf	(?___xxtofl+1)^0,c
  2624   000A14  0E00               	movlw	0
  2625   000A16  6E03               	movwf	(?___xxtofl+2)^0,c
  2626   000A18  0E00               	movlw	0
  2627   000A1A  6E04               	movwf	(?___xxtofl+3)^0,c
  2628   000A1C  EFA1  F005         	goto	l953
  2629   000A20                     l1562:
  2630   000A20  0E96               	movlw	150
  2631   000A22  6E0A               	movwf	___xxtofl@exp^0,c
  2632   000A24  EF1A  F005         	goto	l1566
  2633   000A28                     l1564:
  2634   000A28  2A0A               	incf	___xxtofl@exp^0,f,c
  2635   000A2A  90D8               	bcf	status,0,c
  2636   000A2C  320E               	rrcf	(___xxtofl@arg+3)^0,f,c
  2637   000A2E  320D               	rrcf	(___xxtofl@arg+2)^0,f,c
  2638   000A30  320C               	rrcf	(___xxtofl@arg+1)^0,f,c
  2639   000A32  320B               	rrcf	___xxtofl@arg^0,f,c
  2640   000A34                     l1566:
  2641   000A34  0E00               	movlw	0
  2642   000A36  140B               	andwf	___xxtofl@arg^0,w,c
  2643   000A38  6E05               	movwf	??___xxtofl^0,c
  2644   000A3A  0E00               	movlw	0
  2645   000A3C  140C               	andwf	(___xxtofl@arg+1)^0,w,c
  2646   000A3E  6E06               	movwf	(??___xxtofl+1)^0,c
  2647   000A40  0E00               	movlw	0
  2648   000A42  140D               	andwf	(___xxtofl@arg+2)^0,w,c
  2649   000A44  6E07               	movwf	(??___xxtofl+2)^0,c
  2650   000A46  0EFE               	movlw	254
  2651   000A48  140E               	andwf	(___xxtofl@arg+3)^0,w,c
  2652   000A4A  6E08               	movwf	(??___xxtofl+3)^0,c
  2653   000A4C  5005               	movf	??___xxtofl^0,w,c
  2654   000A4E  1006               	iorwf	(??___xxtofl+1)^0,w,c
  2655   000A50  1007               	iorwf	(??___xxtofl+2)^0,w,c
  2656   000A52  1008               	iorwf	(??___xxtofl+3)^0,w,c
  2657   000A54  A4D8               	btfss	status,2,c
  2658   000A56  EF2F  F005         	goto	u961
  2659   000A5A  EF31  F005         	goto	u960
  2660   000A5E                     u961:
  2661   000A5E  EF14  F005         	goto	l1564
  2662   000A62                     u960:
  2663   000A62  EF3F  F005         	goto	l957
  2664   000A66                     l1568:
  2665   000A66  2A0A               	incf	___xxtofl@exp^0,f,c
  2666   000A68  0E01               	movlw	1
  2667   000A6A  260B               	addwf	___xxtofl@arg^0,f,c
  2668   000A6C  0E00               	movlw	0
  2669   000A6E  220C               	addwfc	(___xxtofl@arg+1)^0,f,c
  2670   000A70  220D               	addwfc	(___xxtofl@arg+2)^0,f,c
  2671   000A72  220E               	addwfc	(___xxtofl@arg+3)^0,f,c
  2672   000A74  90D8               	bcf	status,0,c
  2673   000A76  320E               	rrcf	(___xxtofl@arg+3)^0,f,c
  2674   000A78  320D               	rrcf	(___xxtofl@arg+2)^0,f,c
  2675   000A7A  320C               	rrcf	(___xxtofl@arg+1)^0,f,c
  2676   000A7C  320B               	rrcf	___xxtofl@arg^0,f,c
  2677   000A7E                     l957:
  2678   000A7E  0E00               	movlw	0
  2679   000A80  140B               	andwf	___xxtofl@arg^0,w,c
  2680   000A82  6E05               	movwf	??___xxtofl^0,c
  2681   000A84  0E00               	movlw	0
  2682   000A86  140C               	andwf	(___xxtofl@arg+1)^0,w,c
  2683   000A88  6E06               	movwf	(??___xxtofl+1)^0,c
  2684   000A8A  0E00               	movlw	0
  2685   000A8C  140D               	andwf	(___xxtofl@arg+2)^0,w,c
  2686   000A8E  6E07               	movwf	(??___xxtofl+2)^0,c
  2687   000A90  0EFF               	movlw	255
  2688   000A92  140E               	andwf	(___xxtofl@arg+3)^0,w,c
  2689   000A94  6E08               	movwf	(??___xxtofl+3)^0,c
  2690   000A96  5005               	movf	??___xxtofl^0,w,c
  2691   000A98  1006               	iorwf	(??___xxtofl+1)^0,w,c
  2692   000A9A  1007               	iorwf	(??___xxtofl+2)^0,w,c
  2693   000A9C  1008               	iorwf	(??___xxtofl+3)^0,w,c
  2694   000A9E  A4D8               	btfss	status,2,c
  2695   000AA0  EF54  F005         	goto	u971
  2696   000AA4  EF56  F005         	goto	u970
  2697   000AA8                     u971:
  2698   000AA8  EF33  F005         	goto	l1568
  2699   000AAC                     u970:
  2700   000AAC  EF5E  F005         	goto	l1576
  2701   000AB0                     l1574:
  2702   000AB0  060A               	decf	___xxtofl@exp^0,f,c
  2703   000AB2  90D8               	bcf	status,0,c
  2704   000AB4  360B               	rlcf	___xxtofl@arg^0,f,c
  2705   000AB6  360C               	rlcf	(___xxtofl@arg+1)^0,f,c
  2706   000AB8  360D               	rlcf	(___xxtofl@arg+2)^0,f,c
  2707   000ABA  360E               	rlcf	(___xxtofl@arg+3)^0,f,c
  2708   000ABC                     l1576:
  2709   000ABC  BE0D               	btfsc	(___xxtofl@arg+2)^0,7,c
  2710   000ABE  EF63  F005         	goto	u981
  2711   000AC2  EF65  F005         	goto	u980
  2712   000AC6                     u981:
  2713   000AC6  EF6D  F005         	goto	l964
  2714   000ACA                     u980:
  2715   000ACA  0E02               	movlw	2
  2716   000ACC  600A               	cpfslt	___xxtofl@exp^0,c
  2717   000ACE  EF6B  F005         	goto	u991
  2718   000AD2  EF6D  F005         	goto	u990
  2719   000AD6                     u991:
  2720   000AD6  EF58  F005         	goto	l1574
  2721   000ADA                     u990:
  2722   000ADA                     l964:
  2723   000ADA  B00A               	btfsc	___xxtofl@exp^0,0,c
  2724   000ADC  EF72  F005         	goto	u1001
  2725   000AE0  EF74  F005         	goto	u1000
  2726   000AE4                     u1001:
  2727   000AE4  EF75  F005         	goto	l1582
  2728   000AE8                     u1000:
  2729   000AE8  9E0D               	bcf	(___xxtofl@arg+2)^0,7,c
  2730   000AEA                     l1582:
  2731   000AEA  90D8               	bcf	status,0,c
  2732   000AEC  320A               	rrcf	___xxtofl@exp^0,f,c
  2733   000AEE  C00A  F005         	movff	___xxtofl@exp,??___xxtofl
  2734   000AF2  6A06               	clrf	(??___xxtofl+1)^0,c
  2735   000AF4  6A07               	clrf	(??___xxtofl+2)^0,c
  2736   000AF6  6A08               	clrf	(??___xxtofl+3)^0,c
  2737   000AF8  C005  F008         	movff	??___xxtofl,??___xxtofl+3
  2738   000AFC  6A07               	clrf	(??___xxtofl+2)^0,c
  2739   000AFE  6A06               	clrf	(??___xxtofl+1)^0,c
  2740   000B00  6A05               	clrf	??___xxtofl^0,c
  2741   000B02  5005               	movf	??___xxtofl^0,w,c
  2742   000B04  120B               	iorwf	___xxtofl@arg^0,f,c
  2743   000B06  5006               	movf	(??___xxtofl+1)^0,w,c
  2744   000B08  120C               	iorwf	(___xxtofl@arg+1)^0,f,c
  2745   000B0A  5007               	movf	(??___xxtofl+2)^0,w,c
  2746   000B0C  120D               	iorwf	(___xxtofl@arg+2)^0,f,c
  2747   000B0E  5008               	movf	(??___xxtofl+3)^0,w,c
  2748   000B10  120E               	iorwf	(___xxtofl@arg+3)^0,f,c
  2749   000B12  5009               	movf	___xxtofl@sign^0,w,c
  2750   000B14  B4D8               	btfsc	status,2,c
  2751   000B16  EF8F  F005         	goto	u1011
  2752   000B1A  EF91  F005         	goto	u1010
  2753   000B1E                     u1011:
  2754   000B1E  EF99  F005         	goto	l1592
  2755   000B22                     u1010:
  2756   000B22  BE04               	btfsc	(___xxtofl@val+3)^0,7,c
  2757   000B24  EF98  F005         	goto	u1020
  2758   000B28  EF96  F005         	goto	u1021
  2759   000B2C                     u1021:
  2760   000B2C  EF99  F005         	goto	l1592
  2761   000B30                     u1020:
  2762   000B30  8E0E               	bsf	(___xxtofl@arg+3)^0,7,c
  2763   000B32                     l1592:
  2764   000B32  C00B  F001         	movff	___xxtofl@arg,?___xxtofl
  2765   000B36  C00C  F002         	movff	___xxtofl@arg+1,?___xxtofl+1
  2766   000B3A  C00D  F003         	movff	___xxtofl@arg+2,?___xxtofl+2
  2767   000B3E  C00E  F004         	movff	___xxtofl@arg+3,?___xxtofl+3
  2768   000B42                     l953:
  2769   000B42  0012               	return		;funcret
  2770   000B44                     __end_of___xxtofl:
  2771                           	callstack 0
  2772                           
  2773 ;; *************** function ___fltol *****************
  2774 ;; Defined at:
  2775 ;;		line 43 in file "C:\Program Files\Microchip\xc8\v3.10\pic\sources\c99\common\fltol.c"
  2776 ;; Parameters:    Size  Location     Type
  2777 ;;  f1              4   39[COMRAM] unsigned char 
  2778 ;; Auto vars:     Size  Location     Type
  2779 ;;  exp1            1   48[COMRAM] unsigned char 
  2780 ;;  sign1           1   47[COMRAM] unsigned char 
  2781 ;; Return value:  Size  Location     Type
  2782 ;;                  4   39[COMRAM] long 
  2783 ;; Registers used:
  2784 ;;		wreg, status,2, status,0
  2785 ;; Tracked objects:
  2786 ;;		On entry : 0/0
  2787 ;;		On exit  : 0/0
  2788 ;;		Unchanged: 0/0
  2789 ;; Data sizes:     COMRAM   BANK0   BANK1   BANK2   BANK3   BANK4   BANK5
  2790 ;;      Params:         4       0       0       0       0       0       0
  2791 ;;      Locals:         2       0       0       0       0       0       0
  2792 ;;      Temps:          4       0       0       0       0       0       0
  2793 ;;      Totals:        10       0       0       0       0       0       0
  2794 ;;Total ram usage:       10 bytes
  2795 ;; Hardware stack levels used: 1
  2796 ;; This function calls:
  2797 ;;		Nothing
  2798 ;; This function is called by:
  2799 ;;		_get_speed
  2800 ;; This function uses a non-reentrant model
  2801 ;;
  2802                           
  2803                           	psect	text8
  2804   000B44                     __ptext8:
  2805                           	callstack 0
  2806   000B44                     ___fltol:
  2807                           	callstack 29
  2808   000B44  342A               	rlcf	(___fltol@f1+2)^0,w,c
  2809   000B46  342B               	rlcf	(___fltol@f1+3)^0,w,c
  2810   000B48  6E31               	movwf	___fltol@exp1^0,c
  2811   000B4A  5031               	movf	___fltol@exp1^0,w,c
  2812   000B4C  A4D8               	btfss	status,2,c
  2813   000B4E  EFAB  F005         	goto	u861
  2814   000B52  EFAD  F005         	goto	u860
  2815   000B56                     u861:
  2816   000B56  EFB7  F005         	goto	l1512
  2817   000B5A                     u860:
  2818   000B5A                     l1508:
  2819   000B5A  0E00               	movlw	0
  2820   000B5C  6E28               	movwf	?___fltol^0,c
  2821   000B5E  0E00               	movlw	0
  2822   000B60  6E29               	movwf	(?___fltol+1)^0,c
  2823   000B62  0E00               	movlw	0
  2824   000B64  6E2A               	movwf	(?___fltol+2)^0,c
  2825   000B66  0E00               	movlw	0
  2826   000B68  6E2B               	movwf	(?___fltol+3)^0,c
  2827   000B6A  EF24  F006         	goto	l592
  2828   000B6E                     l1512:
  2829   000B6E  C028  F02C         	movff	___fltol@f1,??___fltol
  2830   000B72  C029  F02D         	movff	___fltol@f1+1,??___fltol+1
  2831   000B76  C02A  F02E         	movff	___fltol@f1+2,??___fltol+2
  2832   000B7A  C02B  F02F         	movff	___fltol@f1+3,??___fltol+3
  2833   000B7E  0E20               	movlw	32
  2834   000B80  EFC7  F005         	goto	u870
  2835   000B84                     u875:
  2836   000B84  90D8               	bcf	status,0,c
  2837   000B86  322F               	rrcf	(??___fltol+3)^0,f,c
  2838   000B88  322E               	rrcf	(??___fltol+2)^0,f,c
  2839   000B8A  322D               	rrcf	(??___fltol+1)^0,f,c
  2840   000B8C  322C               	rrcf	??___fltol^0,f,c
  2841   000B8E                     u870:
  2842   000B8E  2EE8               	decfsz	wreg,f,c
  2843   000B90  EFC2  F005         	goto	u875
  2844   000B94  502C               	movf	??___fltol^0,w,c
  2845   000B96  6E30               	movwf	___fltol@sign1^0,c
  2846   000B98  8E2A               	bsf	(___fltol@f1+2)^0,7,c
  2847   000B9A  0EFF               	movlw	255
  2848   000B9C  1628               	andwf	___fltol@f1^0,f,c
  2849   000B9E  0EFF               	movlw	255
  2850   000BA0  1629               	andwf	(___fltol@f1+1)^0,f,c
  2851   000BA2  0EFF               	movlw	255
  2852   000BA4  162A               	andwf	(___fltol@f1+2)^0,f,c
  2853   000BA6  0E00               	movlw	0
  2854   000BA8  162B               	andwf	(___fltol@f1+3)^0,f,c
  2855   000BAA  0E96               	movlw	150
  2856   000BAC  5E31               	subwf	___fltol@exp1^0,f,c
  2857   000BAE  BE31               	btfsc	___fltol@exp1^0,7,c
  2858   000BB0  EFDE  F005         	goto	u880
  2859   000BB4  EFDC  F005         	goto	u881
  2860   000BB8                     u881:
  2861   000BB8  EFF4  F005         	goto	l1532
  2862   000BBC                     u880:
  2863   000BBC  5031               	movf	___fltol@exp1^0,w,c
  2864   000BBE  0A80               	xorlw	128
  2865   000BC0  0F97               	addlw	151
  2866   000BC2  B0D8               	btfsc	status,0,c
  2867   000BC4  EFE6  F005         	goto	u891
  2868   000BC8  EFE8  F005         	goto	u890
  2869   000BCC                     u891:
  2870   000BCC  EFEA  F005         	goto	l1528
  2871   000BD0                     u890:
  2872   000BD0  EFAD  F005         	goto	l1508
  2873   000BD4                     l1528:
  2874   000BD4  90D8               	bcf	status,0,c
  2875   000BD6  322B               	rrcf	(___fltol@f1+3)^0,f,c
  2876   000BD8  322A               	rrcf	(___fltol@f1+2)^0,f,c
  2877   000BDA  3229               	rrcf	(___fltol@f1+1)^0,f,c
  2878   000BDC  3228               	rrcf	___fltol@f1^0,f,c
  2879   000BDE  3E31               	incfsz	___fltol@exp1^0,f,c
  2880   000BE0  EFEA  F005         	goto	l1528
  2881   000BE4  EF0C  F006         	goto	l1542
  2882   000BE8                     l1532:
  2883   000BE8  0E1F               	movlw	31
  2884   000BEA  6431               	cpfsgt	___fltol@exp1^0,c
  2885   000BEC  EFFA  F005         	goto	u901
  2886   000BF0  EFFC  F005         	goto	u900
  2887   000BF4                     u901:
  2888   000BF4  EF04  F006         	goto	l1540
  2889   000BF8                     u900:
  2890   000BF8  EFAD  F005         	goto	l1508
  2891   000BFC                     l1538:
  2892   000BFC  90D8               	bcf	status,0,c
  2893   000BFE  3628               	rlcf	___fltol@f1^0,f,c
  2894   000C00  3629               	rlcf	(___fltol@f1+1)^0,f,c
  2895   000C02  362A               	rlcf	(___fltol@f1+2)^0,f,c
  2896   000C04  362B               	rlcf	(___fltol@f1+3)^0,f,c
  2897   000C06  0631               	decf	___fltol@exp1^0,f,c
  2898   000C08                     l1540:
  2899   000C08  5031               	movf	___fltol@exp1^0,w,c
  2900   000C0A  A4D8               	btfss	status,2,c
  2901   000C0C  EF0A  F006         	goto	u911
  2902   000C10  EF0C  F006         	goto	u910
  2903   000C14                     u911:
  2904   000C14  EFFE  F005         	goto	l1538
  2905   000C18                     u910:
  2906   000C18                     l1542:
  2907   000C18  5030               	movf	___fltol@sign1^0,w,c
  2908   000C1A  B4D8               	btfsc	status,2,c
  2909   000C1C  EF12  F006         	goto	u921
  2910   000C20  EF14  F006         	goto	u920
  2911   000C24                     u921:
  2912   000C24  EF1C  F006         	goto	l1546
  2913   000C28                     u920:
  2914   000C28  1E2B               	comf	(___fltol@f1+3)^0,f,c
  2915   000C2A  1E2A               	comf	(___fltol@f1+2)^0,f,c
  2916   000C2C  1E29               	comf	(___fltol@f1+1)^0,f,c
  2917   000C2E  6C28               	negf	___fltol@f1^0,c
  2918   000C30  0E00               	movlw	0
  2919   000C32  2229               	addwfc	(___fltol@f1+1)^0,f,c
  2920   000C34  222A               	addwfc	(___fltol@f1+2)^0,f,c
  2921   000C36  222B               	addwfc	(___fltol@f1+3)^0,f,c
  2922   000C38                     l1546:
  2923   000C38  C028  F028         	movff	___fltol@f1,?___fltol
  2924   000C3C  C029  F029         	movff	___fltol@f1+1,?___fltol+1
  2925   000C40  C02A  F02A         	movff	___fltol@f1+2,?___fltol+2
  2926   000C44  C02B  F02B         	movff	___fltol@f1+3,?___fltol+3
  2927   000C48                     l592:
  2928   000C48  0012               	return		;funcret
  2929   000C4A                     __end_of___fltol:
  2930                           	callstack 0
  2931                           
  2932 ;; *************** function ___fldiv *****************
  2933 ;; Defined at:
  2934 ;;		line 11 in file "C:\Program Files\Microchip\xc8\v3.10\pic\sources\c99\common\sprcdiv.c"
  2935 ;; Parameters:    Size  Location     Type
  2936 ;;  b               4   14[COMRAM] long 
  2937 ;;  a               4   18[COMRAM] long 
  2938 ;; Auto vars:     Size  Location     Type
  2939 ;;  grs             4   33[COMRAM] unsigned long 
  2940 ;;  rem             4   26[COMRAM] unsigned long 
  2941 ;;  new_exp         2   31[COMRAM] short 
  2942 ;;  aexp            1   38[COMRAM] unsigned char 
  2943 ;;  bexp            1   37[COMRAM] unsigned char 
  2944 ;;  sign            1   30[COMRAM] unsigned char 
  2945 ;; Return value:  Size  Location     Type
  2946 ;;                  4   14[COMRAM] unsigned char 
  2947 ;; Registers used:
  2948 ;;		wreg, status,2, status,0
  2949 ;; Tracked objects:
  2950 ;;		On entry : 0/0
  2951 ;;		On exit  : 0/0
  2952 ;;		Unchanged: 0/0
  2953 ;; Data sizes:     COMRAM   BANK0   BANK1   BANK2   BANK3   BANK4   BANK5
  2954 ;;      Params:         8       0       0       0       0       0       0
  2955 ;;      Locals:        13       0       0       0       0       0       0
  2956 ;;      Temps:          4       0       0       0       0       0       0
  2957 ;;      Totals:        25       0       0       0       0       0       0
  2958 ;;Total ram usage:       25 bytes
  2959 ;; Hardware stack levels used: 1
  2960 ;; This function calls:
  2961 ;;		Nothing
  2962 ;; This function is called by:
  2963 ;;		_get_speed
  2964 ;; This function uses a non-reentrant model
  2965 ;;
  2966                           
  2967                           	psect	text9
  2968   000602                     __ptext9:
  2969                           	callstack 0
  2970   000602                     ___fldiv:
  2971                           	callstack 29
  2972   000602  5012               	movf	(___fldiv@b+3)^0,w,c
  2973   000604  0B80               	andlw	128
  2974   000606  6E1F               	movwf	___fldiv@sign^0,c
  2975   000608  5012               	movf	(___fldiv@b+3)^0,w,c
  2976   00060A  2412               	addwf	(___fldiv@b+3)^0,w,c
  2977   00060C  6E26               	movwf	___fldiv@bexp^0,c
  2978   00060E  AE11               	btfss	(___fldiv@b+2)^0,7,c
  2979   000610  EF0C  F003         	goto	u631
  2980   000614  EF0E  F003         	goto	u630
  2981   000618                     u631:
  2982   000618  EF0F  F003         	goto	l1376
  2983   00061C                     u630:
  2984   00061C  8026               	bsf	___fldiv@bexp^0,0,c
  2985   00061E                     l1376:
  2986   00061E  5026               	movf	___fldiv@bexp^0,w,c
  2987   000620  B4D8               	btfsc	status,2,c
  2988   000622  EF15  F003         	goto	u641
  2989   000626  EF17  F003         	goto	u640
  2990   00062A                     u641:
  2991   00062A  EF2B  F003         	goto	l1386
  2992   00062E                     u640:
  2993   00062E  2826               	incf	___fldiv@bexp^0,w,c
  2994   000630  A4D8               	btfss	status,2,c
  2995   000632  EF1D  F003         	goto	u651
  2996   000636  EF1F  F003         	goto	u650
  2997   00063A                     u651:
  2998   00063A  EF27  F003         	goto	l1382
  2999   00063E                     u650:
  3000   00063E  0E00               	movlw	0
  3001   000640  6E0F               	movwf	___fldiv@b^0,c
  3002   000642  0E00               	movlw	0
  3003   000644  6E10               	movwf	(___fldiv@b+1)^0,c
  3004   000646  0E00               	movlw	0
  3005   000648  6E11               	movwf	(___fldiv@b+2)^0,c
  3006   00064A  0E00               	movlw	0
  3007   00064C  6E12               	movwf	(___fldiv@b+3)^0,c
  3008   00064E                     l1382:
  3009   00064E  8E11               	bsf	(___fldiv@b+2)^0,7,c
  3010   000650  6A12               	clrf	(___fldiv@b+3)^0,c
  3011   000652  EF33  F003         	goto	l1388
  3012   000656                     l1386:
  3013   000656  0E00               	movlw	0
  3014   000658  6E0F               	movwf	___fldiv@b^0,c
  3015   00065A  0E00               	movlw	0
  3016   00065C  6E10               	movwf	(___fldiv@b+1)^0,c
  3017   00065E  0E00               	movlw	0
  3018   000660  6E11               	movwf	(___fldiv@b+2)^0,c
  3019   000662  0E00               	movlw	0
  3020   000664  6E12               	movwf	(___fldiv@b+3)^0,c
  3021   000666                     l1388:
  3022   000666  5016               	movf	(___fldiv@a+3)^0,w,c
  3023   000668  0B80               	andlw	128
  3024   00066A  1A1F               	xorwf	___fldiv@sign^0,f,c
  3025   00066C  5016               	movf	(___fldiv@a+3)^0,w,c
  3026   00066E  2416               	addwf	(___fldiv@a+3)^0,w,c
  3027   000670  6E27               	movwf	___fldiv@aexp^0,c
  3028   000672  AE15               	btfss	(___fldiv@a+2)^0,7,c
  3029   000674  EF3E  F003         	goto	u661
  3030   000678  EF40  F003         	goto	u660
  3031   00067C                     u661:
  3032   00067C  EF41  F003         	goto	l1396
  3033   000680                     u660:
  3034   000680  8027               	bsf	___fldiv@aexp^0,0,c
  3035   000682                     l1396:
  3036   000682  5027               	movf	___fldiv@aexp^0,w,c
  3037   000684  B4D8               	btfsc	status,2,c
  3038   000686  EF47  F003         	goto	u671
  3039   00068A  EF49  F003         	goto	u670
  3040   00068E                     u671:
  3041   00068E  EF5D  F003         	goto	l1406
  3042   000692                     u670:
  3043   000692  2827               	incf	___fldiv@aexp^0,w,c
  3044   000694  A4D8               	btfss	status,2,c
  3045   000696  EF4F  F003         	goto	u681
  3046   00069A  EF51  F003         	goto	u680
  3047   00069E                     u681:
  3048   00069E  EF59  F003         	goto	l1402
  3049   0006A2                     u680:
  3050   0006A2  0E00               	movlw	0
  3051   0006A4  6E13               	movwf	___fldiv@a^0,c
  3052   0006A6  0E00               	movlw	0
  3053   0006A8  6E14               	movwf	(___fldiv@a+1)^0,c
  3054   0006AA  0E00               	movlw	0
  3055   0006AC  6E15               	movwf	(___fldiv@a+2)^0,c
  3056   0006AE  0E00               	movlw	0
  3057   0006B0  6E16               	movwf	(___fldiv@a+3)^0,c
  3058   0006B2                     l1402:
  3059   0006B2  8E15               	bsf	(___fldiv@a+2)^0,7,c
  3060   0006B4  6A16               	clrf	(___fldiv@a+3)^0,c
  3061   0006B6  EF65  F003         	goto	l1408
  3062   0006BA                     l1406:
  3063   0006BA  0E00               	movlw	0
  3064   0006BC  6E13               	movwf	___fldiv@a^0,c
  3065   0006BE  0E00               	movlw	0
  3066   0006C0  6E14               	movwf	(___fldiv@a+1)^0,c
  3067   0006C2  0E00               	movlw	0
  3068   0006C4  6E15               	movwf	(___fldiv@a+2)^0,c
  3069   0006C6  0E00               	movlw	0
  3070   0006C8  6E16               	movwf	(___fldiv@a+3)^0,c
  3071   0006CA                     l1408:
  3072   0006CA  5013               	movf	___fldiv@a^0,w,c
  3073   0006CC  1014               	iorwf	(___fldiv@a+1)^0,w,c
  3074   0006CE  1015               	iorwf	(___fldiv@a+2)^0,w,c
  3075   0006D0  1016               	iorwf	(___fldiv@a+3)^0,w,c
  3076   0006D2  A4D8               	btfss	status,2,c
  3077   0006D4  EF6E  F003         	goto	u691
  3078   0006D8  EF70  F003         	goto	u690
  3079   0006DC                     u691:
  3080   0006DC  EF88  F003         	goto	l1420
  3081   0006E0                     u690:
  3082   0006E0  0E00               	movlw	0
  3083   0006E2  6E0F               	movwf	___fldiv@b^0,c
  3084   0006E4  0E00               	movlw	0
  3085   0006E6  6E10               	movwf	(___fldiv@b+1)^0,c
  3086   0006E8  0E00               	movlw	0
  3087   0006EA  6E11               	movwf	(___fldiv@b+2)^0,c
  3088   0006EC  0E00               	movlw	0
  3089   0006EE  6E12               	movwf	(___fldiv@b+3)^0,c
  3090   0006F0  0E80               	movlw	128
  3091   0006F2  1211               	iorwf	(___fldiv@b+2)^0,f,c
  3092   0006F4  0E7F               	movlw	127
  3093   0006F6  1212               	iorwf	(___fldiv@b+3)^0,f,c
  3094   0006F8                     l1414:
  3095   0006F8  501F               	movf	___fldiv@sign^0,w,c
  3096   0006FA  1212               	iorwf	(___fldiv@b+3)^0,f,c
  3097   0006FC  C00F  F00F         	movff	___fldiv@b,?___fldiv
  3098   000700  C010  F010         	movff	___fldiv@b+1,?___fldiv+1
  3099   000704  C011  F011         	movff	___fldiv@b+2,?___fldiv+2
  3100   000708  C012  F012         	movff	___fldiv@b+3,?___fldiv+3
  3101   00070C  EFC7  F004         	goto	l877
  3102   000710                     l1420:
  3103   000710  5026               	movf	___fldiv@bexp^0,w,c
  3104   000712  A4D8               	btfss	status,2,c
  3105   000714  EF8E  F003         	goto	u701
  3106   000718  EF90  F003         	goto	u700
  3107   00071C                     u701:
  3108   00071C  EF9A  F003         	goto	l1428
  3109   000720                     u700:
  3110   000720  0E00               	movlw	0
  3111   000722  6E0F               	movwf	?___fldiv^0,c
  3112   000724  0E00               	movlw	0
  3113   000726  6E10               	movwf	(?___fldiv+1)^0,c
  3114   000728  0E00               	movlw	0
  3115   00072A  6E11               	movwf	(?___fldiv+2)^0,c
  3116   00072C  0E00               	movlw	0
  3117   00072E  6E12               	movwf	(?___fldiv+3)^0,c
  3118   000730  EFC7  F004         	goto	l877
  3119   000734                     l1428:
  3120   000734  5027               	movf	___fldiv@aexp^0,w,c
  3121   000736  C026  F017         	movff	___fldiv@bexp,??___fldiv
  3122   00073A  6A18               	clrf	(??___fldiv+1)^0,c
  3123   00073C  5E17               	subwf	??___fldiv^0,f,c
  3124   00073E  0E00               	movlw	0
  3125   000740  5A18               	subwfb	(??___fldiv+1)^0,f,c
  3126   000742  0E7F               	movlw	127
  3127   000744  2417               	addwf	??___fldiv^0,w,c
  3128   000746  6E20               	movwf	___fldiv@new_exp^0,c
  3129   000748  0E00               	movlw	0
  3130   00074A  2018               	addwfc	(??___fldiv+1)^0,w,c
  3131   00074C  6E21               	movwf	(___fldiv@new_exp+1)^0,c
  3132   00074E  C00F  F01B         	movff	___fldiv@b,___fldiv@rem
  3133   000752  C010  F01C         	movff	___fldiv@b+1,___fldiv@rem+1
  3134   000756  C011  F01D         	movff	___fldiv@b+2,___fldiv@rem+2
  3135   00075A  C012  F01E         	movff	___fldiv@b+3,___fldiv@rem+3
  3136   00075E  0E00               	movlw	0
  3137   000760  6E0F               	movwf	___fldiv@b^0,c
  3138   000762  0E00               	movlw	0
  3139   000764  6E10               	movwf	(___fldiv@b+1)^0,c
  3140   000766  0E00               	movlw	0
  3141   000768  6E11               	movwf	(___fldiv@b+2)^0,c
  3142   00076A  0E00               	movlw	0
  3143   00076C  6E12               	movwf	(___fldiv@b+3)^0,c
  3144   00076E  0E00               	movlw	0
  3145   000770  6E22               	movwf	___fldiv@grs^0,c
  3146   000772  0E00               	movlw	0
  3147   000774  6E23               	movwf	(___fldiv@grs+1)^0,c
  3148   000776  0E00               	movlw	0
  3149   000778  6E24               	movwf	(___fldiv@grs+2)^0,c
  3150   00077A  0E00               	movlw	0
  3151   00077C  6E25               	movwf	(___fldiv@grs+3)^0,c
  3152   00077E  6A27               	clrf	___fldiv@aexp^0,c
  3153   000780  EFFA  F003         	goto	l879
  3154   000784                     l1438:
  3155   000784  5027               	movf	___fldiv@aexp^0,w,c
  3156   000786  B4D8               	btfsc	status,2,c
  3157   000788  EFC8  F003         	goto	u711
  3158   00078C  EFCA  F003         	goto	u710
  3159   000790                     u711:
  3160   000790  EFE1  F003         	goto	l1446
  3161   000794                     u710:
  3162   000794  90D8               	bcf	status,0,c
  3163   000796  361B               	rlcf	___fldiv@rem^0,f,c
  3164   000798  361C               	rlcf	(___fldiv@rem+1)^0,f,c
  3165   00079A  361D               	rlcf	(___fldiv@rem+2)^0,f,c
  3166   00079C  361E               	rlcf	(___fldiv@rem+3)^0,f,c
  3167   00079E  90D8               	bcf	status,0,c
  3168   0007A0  360F               	rlcf	___fldiv@b^0,f,c
  3169   0007A2  3610               	rlcf	(___fldiv@b+1)^0,f,c
  3170   0007A4  3611               	rlcf	(___fldiv@b+2)^0,f,c
  3171   0007A6  3612               	rlcf	(___fldiv@b+3)^0,f,c
  3172   0007A8  AE25               	btfss	(___fldiv@grs+3)^0,7,c
  3173   0007AA  EFD9  F003         	goto	u721
  3174   0007AE  EFDB  F003         	goto	u720
  3175   0007B2                     u721:
  3176   0007B2  EFDC  F003         	goto	l882
  3177   0007B6                     u720:
  3178   0007B6  800F               	bsf	___fldiv@b^0,0,c
  3179   0007B8                     l882:
  3180   0007B8  90D8               	bcf	status,0,c
  3181   0007BA  3622               	rlcf	___fldiv@grs^0,f,c
  3182   0007BC  3623               	rlcf	(___fldiv@grs+1)^0,f,c
  3183   0007BE  3624               	rlcf	(___fldiv@grs+2)^0,f,c
  3184   0007C0  3625               	rlcf	(___fldiv@grs+3)^0,f,c
  3185   0007C2                     l1446:
  3186   0007C2  5013               	movf	___fldiv@a^0,w,c
  3187   0007C4  5C1B               	subwf	___fldiv@rem^0,w,c
  3188   0007C6  5014               	movf	(___fldiv@a+1)^0,w,c
  3189   0007C8  581C               	subwfb	(___fldiv@rem+1)^0,w,c
  3190   0007CA  5015               	movf	(___fldiv@a+2)^0,w,c
  3191   0007CC  581D               	subwfb	(___fldiv@rem+2)^0,w,c
  3192   0007CE  5016               	movf	(___fldiv@a+3)^0,w,c
  3193   0007D0  581E               	subwfb	(___fldiv@rem+3)^0,w,c
  3194   0007D2  A0D8               	btfss	status,0,c
  3195   0007D4  EFEE  F003         	goto	u731
  3196   0007D8  EFF0  F003         	goto	u730
  3197   0007DC                     u731:
  3198   0007DC  EFF9  F003         	goto	l1452
  3199   0007E0                     u730:
  3200   0007E0  8C25               	bsf	(___fldiv@grs+3)^0,6,c
  3201   0007E2  5013               	movf	___fldiv@a^0,w,c
  3202   0007E4  5E1B               	subwf	___fldiv@rem^0,f,c
  3203   0007E6  5014               	movf	(___fldiv@a+1)^0,w,c
  3204   0007E8  5A1C               	subwfb	(___fldiv@rem+1)^0,f,c
  3205   0007EA  5015               	movf	(___fldiv@a+2)^0,w,c
  3206   0007EC  5A1D               	subwfb	(___fldiv@rem+2)^0,f,c
  3207   0007EE  5016               	movf	(___fldiv@a+3)^0,w,c
  3208   0007F0  5A1E               	subwfb	(___fldiv@rem+3)^0,f,c
  3209   0007F2                     l1452:
  3210   0007F2  2A27               	incf	___fldiv@aexp^0,f,c
  3211   0007F4                     l879:
  3212   0007F4  0E19               	movlw	25
  3213   0007F6  6427               	cpfsgt	___fldiv@aexp^0,c
  3214   0007F8  EF00  F004         	goto	u741
  3215   0007FC  EF02  F004         	goto	u740
  3216   000800                     u741:
  3217   000800  EFC2  F003         	goto	l1438
  3218   000804                     u740:
  3219   000804  501B               	movf	___fldiv@rem^0,w,c
  3220   000806  101C               	iorwf	(___fldiv@rem+1)^0,w,c
  3221   000808  101D               	iorwf	(___fldiv@rem+2)^0,w,c
  3222   00080A  101E               	iorwf	(___fldiv@rem+3)^0,w,c
  3223   00080C  B4D8               	btfsc	status,2,c
  3224   00080E  EF0B  F004         	goto	u751
  3225   000812  EF0D  F004         	goto	u750
  3226   000816                     u751:
  3227   000816  EF25  F004         	goto	l1464
  3228   00081A                     u750:
  3229   00081A  8022               	bsf	___fldiv@grs^0,0,c
  3230   00081C  EF25  F004         	goto	l1464
  3231   000820                     l1458:
  3232   000820  90D8               	bcf	status,0,c
  3233   000822  360F               	rlcf	___fldiv@b^0,f,c
  3234   000824  3610               	rlcf	(___fldiv@b+1)^0,f,c
  3235   000826  3611               	rlcf	(___fldiv@b+2)^0,f,c
  3236   000828  3612               	rlcf	(___fldiv@b+3)^0,f,c
  3237   00082A  AE25               	btfss	(___fldiv@grs+3)^0,7,c
  3238   00082C  EF1A  F004         	goto	u761
  3239   000830  EF1C  F004         	goto	u760
  3240   000834                     u761:
  3241   000834  EF1D  F004         	goto	l888
  3242   000838                     u760:
  3243   000838  800F               	bsf	___fldiv@b^0,0,c
  3244   00083A                     l888:
  3245   00083A  90D8               	bcf	status,0,c
  3246   00083C  3622               	rlcf	___fldiv@grs^0,f,c
  3247   00083E  3623               	rlcf	(___fldiv@grs+1)^0,f,c
  3248   000840  3624               	rlcf	(___fldiv@grs+2)^0,f,c
  3249   000842  3625               	rlcf	(___fldiv@grs+3)^0,f,c
  3250   000844  0620               	decf	___fldiv@new_exp^0,f,c
  3251   000846  A0D8               	btfss	status,0,c
  3252   000848  0621               	decf	(___fldiv@new_exp+1)^0,f,c
  3253   00084A                     l1464:
  3254   00084A  AE11               	btfss	(___fldiv@b+2)^0,7,c
  3255   00084C  EF2A  F004         	goto	u771
  3256   000850  EF2C  F004         	goto	u770
  3257   000854                     u771:
  3258   000854  EF10  F004         	goto	l1458
  3259   000858                     u770:
  3260   000858  6A27               	clrf	___fldiv@aexp^0,c
  3261   00085A  AE25               	btfss	(___fldiv@grs+3)^0,7,c
  3262   00085C  EF32  F004         	goto	u781
  3263   000860  EF34  F004         	goto	u780
  3264   000864                     u781:
  3265   000864  EF58  F004         	goto	l890
  3266   000868                     u780:
  3267   000868  0EFF               	movlw	255
  3268   00086A  1422               	andwf	___fldiv@grs^0,w,c
  3269   00086C  6E17               	movwf	??___fldiv^0,c
  3270   00086E  0EFF               	movlw	255
  3271   000870  1423               	andwf	(___fldiv@grs+1)^0,w,c
  3272   000872  6E18               	movwf	(??___fldiv+1)^0,c
  3273   000874  0EFF               	movlw	255
  3274   000876  1424               	andwf	(___fldiv@grs+2)^0,w,c
  3275   000878  6E19               	movwf	(??___fldiv+2)^0,c
  3276   00087A  0E7F               	movlw	127
  3277   00087C  1425               	andwf	(___fldiv@grs+3)^0,w,c
  3278   00087E  6E1A               	movwf	(??___fldiv+3)^0,c
  3279   000880  5017               	movf	??___fldiv^0,w,c
  3280   000882  1018               	iorwf	(??___fldiv+1)^0,w,c
  3281   000884  1019               	iorwf	(??___fldiv+2)^0,w,c
  3282   000886  101A               	iorwf	(??___fldiv+3)^0,w,c
  3283   000888  B4D8               	btfsc	status,2,c
  3284   00088A  EF49  F004         	goto	u791
  3285   00088E  EF4B  F004         	goto	u790
  3286   000892                     u791:
  3287   000892  EF4F  F004         	goto	l891
  3288   000896                     u790:
  3289   000896                     l1468:
  3290   000896  0E01               	movlw	1
  3291   000898  6E27               	movwf	___fldiv@aexp^0,c
  3292   00089A  EF58  F004         	goto	l890
  3293   00089E                     l891:
  3294   00089E  A00F               	btfss	___fldiv@b^0,0,c
  3295   0008A0  EF54  F004         	goto	u801
  3296   0008A4  EF56  F004         	goto	u800
  3297   0008A8                     u801:
  3298   0008A8  EF58  F004         	goto	l890
  3299   0008AC                     u800:
  3300   0008AC  EF4B  F004         	goto	l1468
  3301   0008B0                     l890:
  3302   0008B0  5027               	movf	___fldiv@aexp^0,w,c
  3303   0008B2  B4D8               	btfsc	status,2,c
  3304   0008B4  EF5E  F004         	goto	u811
  3305   0008B8  EF60  F004         	goto	u810
  3306   0008BC                     u811:
  3307   0008BC  EF84  F004         	goto	l1480
  3308   0008C0                     u810:
  3309   0008C0  0E01               	movlw	1
  3310   0008C2  260F               	addwf	___fldiv@b^0,f,c
  3311   0008C4  0E00               	movlw	0
  3312   0008C6  2210               	addwfc	(___fldiv@b+1)^0,f,c
  3313   0008C8  2211               	addwfc	(___fldiv@b+2)^0,f,c
  3314   0008CA  2212               	addwfc	(___fldiv@b+3)^0,f,c
  3315   0008CC  A012               	btfss	(___fldiv@b+3)^0,0,c
  3316   0008CE  EF6B  F004         	goto	u821
  3317   0008D2  EF6D  F004         	goto	u820
  3318   0008D6                     u821:
  3319   0008D6  EF84  F004         	goto	l1480
  3320   0008DA                     u820:
  3321   0008DA  C00F  F017         	movff	___fldiv@b,??___fldiv
  3322   0008DE  C010  F018         	movff	___fldiv@b+1,??___fldiv+1
  3323   0008E2  C011  F019         	movff	___fldiv@b+2,??___fldiv+2
  3324   0008E6  C012  F01A         	movff	___fldiv@b+3,??___fldiv+3
  3325   0008EA  341A               	rlcf	(??___fldiv+3)^0,w,c
  3326   0008EC  321A               	rrcf	(??___fldiv+3)^0,f,c
  3327   0008EE  3219               	rrcf	(??___fldiv+2)^0,f,c
  3328   0008F0  3218               	rrcf	(??___fldiv+1)^0,f,c
  3329   0008F2  3217               	rrcf	??___fldiv^0,f,c
  3330   0008F4  C017  F00F         	movff	??___fldiv,___fldiv@b
  3331   0008F8  C018  F010         	movff	??___fldiv+1,___fldiv@b+1
  3332   0008FC  C019  F011         	movff	??___fldiv+2,___fldiv@b+2
  3333   000900  C01A  F012         	movff	??___fldiv+3,___fldiv@b+3
  3334   000904  4A20               	infsnz	___fldiv@new_exp^0,f,c
  3335   000906  2A21               	incf	(___fldiv@new_exp+1)^0,f,c
  3336   000908                     l1480:
  3337   000908  BE21               	btfsc	(___fldiv@new_exp+1)^0,7,c
  3338   00090A  EF8F  F004         	goto	u831
  3339   00090E  5021               	movf	(___fldiv@new_exp+1)^0,w,c
  3340   000910  E108               	bnz	u830
  3341   000912  2820               	incf	___fldiv@new_exp^0,w,c
  3342   000914  A0D8               	btfss	status,0,c
  3343   000916  EF8F  F004         	goto	u831
  3344   00091A  EF91  F004         	goto	u830
  3345   00091E                     u831:
  3346   00091E  EF9C  F004         	goto	l1484
  3347   000922                     u830:
  3348   000922  0E00               	movlw	0
  3349   000924  6E21               	movwf	(___fldiv@new_exp+1)^0,c
  3350   000926  6820               	setf	___fldiv@new_exp^0,c
  3351   000928  0E00               	movlw	0
  3352   00092A  6E0F               	movwf	___fldiv@b^0,c
  3353   00092C  0E00               	movlw	0
  3354   00092E  6E10               	movwf	(___fldiv@b+1)^0,c
  3355   000930  0E00               	movlw	0
  3356   000932  6E11               	movwf	(___fldiv@b+2)^0,c
  3357   000934  0E00               	movlw	0
  3358   000936  6E12               	movwf	(___fldiv@b+3)^0,c
  3359   000938                     l1484:
  3360   000938  BE21               	btfsc	(___fldiv@new_exp+1)^0,7,c
  3361   00093A  EFA9  F004         	goto	u840
  3362   00093E  5021               	movf	(___fldiv@new_exp+1)^0,w,c
  3363   000940  E106               	bnz	u841
  3364   000942  0420               	decf	___fldiv@new_exp^0,w,c
  3365   000944  B0D8               	btfsc	status,0,c
  3366   000946  EFA7  F004         	goto	u841
  3367   00094A  EFA9  F004         	goto	u840
  3368   00094E                     u841:
  3369   00094E  EFB5  F004         	goto	l1490
  3370   000952                     u840:
  3371   000952  6A21               	clrf	(___fldiv@new_exp+1)^0,c
  3372   000954  0E00               	movlw	0
  3373   000956  6E20               	movwf	___fldiv@new_exp^0,c
  3374   000958  0E00               	movlw	0
  3375   00095A  6E0F               	movwf	___fldiv@b^0,c
  3376   00095C  0E00               	movlw	0
  3377   00095E  6E10               	movwf	(___fldiv@b+1)^0,c
  3378   000960  0E00               	movlw	0
  3379   000962  6E11               	movwf	(___fldiv@b+2)^0,c
  3380   000964  0E00               	movlw	0
  3381   000966  6E12               	movwf	(___fldiv@b+3)^0,c
  3382   000968  6A1F               	clrf	___fldiv@sign^0,c
  3383   00096A                     l1490:
  3384   00096A  C020  F026         	movff	___fldiv@new_exp,___fldiv@bexp
  3385   00096E  A026               	btfss	___fldiv@bexp^0,0,c
  3386   000970  EFBC  F004         	goto	u851
  3387   000974  EFBE  F004         	goto	u850
  3388   000978                     u851:
  3389   000978  EFC1  F004         	goto	l1496
  3390   00097C                     u850:
  3391   00097C  8E11               	bsf	(___fldiv@b+2)^0,7,c
  3392   00097E  EFC2  F004         	goto	l1498
  3393   000982                     l1496:
  3394   000982  9E11               	bcf	(___fldiv@b+2)^0,7,c
  3395   000984                     l1498:
  3396   000984  90D8               	bcf	status,0,c
  3397   000986  3026               	rrcf	___fldiv@bexp^0,w,c
  3398   000988  6E12               	movwf	(___fldiv@b+3)^0,c
  3399   00098A  EF7C  F003         	goto	l1414
  3400   00098E                     l877:
  3401   00098E  0012               	return		;funcret
  3402   000990                     __end_of___fldiv:
  3403                           	callstack 0
  3404                           
  3405 ;; *************** function _delay *****************
  3406 ;; Defined at:
  3407 ;;		line 75 in file "main.c"
  3408 ;; Parameters:    Size  Location     Type
  3409 ;;  factor          2    0[COMRAM] unsigned short 
  3410 ;; Auto vars:     Size  Location     Type
  3411 ;;  i               2    2[COMRAM] unsigned short 
  3412 ;;  j               2    0        unsigned short 
  3413 ;; Return value:  Size  Location     Type
  3414 ;;                  1    wreg      void 
  3415 ;; Registers used:
  3416 ;;		wreg, status,2, status,0
  3417 ;; Tracked objects:
  3418 ;;		On entry : 0/0
  3419 ;;		On exit  : 0/0
  3420 ;;		Unchanged: 0/0
  3421 ;; Data sizes:     COMRAM   BANK0   BANK1   BANK2   BANK3   BANK4   BANK5
  3422 ;;      Params:         2       0       0       0       0       0       0
  3423 ;;      Locals:         2       0       0       0       0       0       0
  3424 ;;      Temps:          0       0       0       0       0       0       0
  3425 ;;      Totals:         4       0       0       0       0       0       0
  3426 ;;Total ram usage:        4 bytes
  3427 ;; Hardware stack levels used: 1
  3428 ;; This function calls:
  3429 ;;		Nothing
  3430 ;; This function is called by:
  3431 ;;		_main
  3432 ;; This function uses a non-reentrant model
  3433 ;;
  3434                           
  3435                           	psect	text10
  3436   000F4A                     __ptext10:
  3437                           	callstack 0
  3438   000F4A                     _delay:
  3439                           	callstack 30
  3440   000F4A                     
  3441                           ;main.c: 75: void delay(unsigned short factor);main.c: 76: {;main.c: 77:  unsigned short
      +                           i, j;;main.c: 79:  for (i = 0; i < factor; i++);
  3442   000F4A  6A04               	clrf	(delay@i+1)^0,c
  3443   000F4C  0E00               	movlw	0
  3444   000F4E  6E03               	movwf	delay@i^0,c
  3445   000F50  EFAC  F007         	goto	l1622
  3446   000F54                     l1620:
  3447   000F54  4A03               	infsnz	delay@i^0,f,c
  3448   000F56  2A04               	incf	(delay@i+1)^0,f,c
  3449   000F58                     l1622:
  3450   000F58  5001               	movf	delay@factor^0,w,c
  3451   000F5A  5C03               	subwf	delay@i^0,w,c
  3452   000F5C  5002               	movf	(delay@factor+1)^0,w,c
  3453   000F5E  5804               	subwfb	(delay@i+1)^0,w,c
  3454   000F60  A0D8               	btfss	status,0,c
  3455   000F62  EFB5  F007         	goto	u1041
  3456   000F66  EFB7  F007         	goto	u1040
  3457   000F6A                     u1041:
  3458   000F6A  EFAA  F007         	goto	l1620
  3459   000F6E                     u1040:
  3460   000F6E  0012               	return		;funcret
  3461   000F70                     __end_of_delay:
  3462                           	callstack 0
  3463                           
  3464 ;; *************** function _change_gear *****************
  3465 ;; Defined at:
  3466 ;;		line 40 in file "main.c"
  3467 ;; Parameters:    Size  Location     Type
  3468 ;;		None
  3469 ;; Auto vars:     Size  Location     Type
  3470 ;;  key             1    1[COMRAM] unsigned char 
  3471 ;; Return value:  Size  Location     Type
  3472 ;;                  1    wreg      unsigned char 
  3473 ;; Registers used:
  3474 ;;		wreg, status,2, status,0, cstack
  3475 ;; Tracked objects:
  3476 ;;		On entry : 0/0
  3477 ;;		On exit  : 0/0
  3478 ;;		Unchanged: 0/0
  3479 ;; Data sizes:     COMRAM   BANK0   BANK1   BANK2   BANK3   BANK4   BANK5
  3480 ;;      Params:         0       0       0       0       0       0       0
  3481 ;;      Locals:         1       0       0       0       0       0       0
  3482 ;;      Temps:          0       0       0       0       0       0       0
  3483 ;;      Totals:         1       0       0       0       0       0       0
  3484 ;;Total ram usage:        1 bytes
  3485 ;; Hardware stack levels used: 1
  3486 ;; Hardware stack levels required when called: 1
  3487 ;; This function calls:
  3488 ;;		_read_digital_keypad
  3489 ;; This function is called by:
  3490 ;;		_main
  3491 ;; This function uses a non-reentrant model
  3492 ;;
  3493                           
  3494                           	psect	text11
  3495   000C4A                     __ptext11:
  3496                           	callstack 0
  3497   000C4A                     _change_gear:
  3498                           	callstack 29
  3499   000C4A                     
  3500                           ;main.c: 42:     static unsigned char gear_index = 0;;main.c: 43:     unsigned char key;
      +                          ;main.c: 45:     key = read_digital_keypad(1);
  3501   000C4A  0E01               	movlw	1
  3502   000C4C  EC7D  F006         	call	_read_digital_keypad
  3503   000C50  6E02               	movwf	change_gear@key^0,c
  3504   000C52                     
  3505                           ;main.c: 48:     if (gear_index == 7)
  3506   000C52  0E07               	movlw	7
  3507   000C54  1837               	xorwf	change_gear@gear_index^0,w,c
  3508   000C56  A4D8               	btfss	status,2,c
  3509   000C58  EF30  F006         	goto	u511
  3510   000C5C  EF32  F006         	goto	u510
  3511   000C60                     u511:
  3512   000C60  EF48  F006         	goto	l1306
  3513   000C64                     u510:
  3514   000C64                     
  3515                           ;main.c: 49:     {;main.c: 50:         if (key == 0x0E || key == 0x0D)
  3516   000C64  0E0E               	movlw	14
  3517   000C66  1802               	xorwf	change_gear@key^0,w,c
  3518   000C68  B4D8               	btfsc	status,2,c
  3519   000C6A  EF39  F006         	goto	u521
  3520   000C6E  EF3B  F006         	goto	u520
  3521   000C72                     u521:
  3522   000C72  EF44  F006         	goto	l113
  3523   000C76                     u520:
  3524   000C76  0E0D               	movlw	13
  3525   000C78  1802               	xorwf	change_gear@key^0,w,c
  3526   000C7A  A4D8               	btfss	status,2,c
  3527   000C7C  EF42  F006         	goto	u531
  3528   000C80  EF44  F006         	goto	u530
  3529   000C84                     u531:
  3530   000C84  EF48  F006         	goto	l1306
  3531   000C88                     u530:
  3532   000C88                     l113:
  3533                           
  3534                           ;main.c: 51:         {;main.c: 52:             gear_index = 0;
  3535   000C88  6A37               	clrf	change_gear@gear_index^0,c
  3536   000C8A                     
  3537                           ;main.c: 53:             return gear_index;
  3538   000C8A  0E00               	movlw	0
  3539   000C8C  EF7C  F006         	goto	l114
  3540   000C90                     l1306:
  3541                           
  3542                           ;main.c: 58:     if (key == 0x0E && gear_index < 6)
  3543   000C90  0E0E               	movlw	14
  3544   000C92  1802               	xorwf	change_gear@key^0,w,c
  3545   000C94  A4D8               	btfss	status,2,c
  3546   000C96  EF4F  F006         	goto	u541
  3547   000C9A  EF51  F006         	goto	u540
  3548   000C9E                     u541:
  3549   000C9E  EF5C  F006         	goto	l1312
  3550   000CA2                     u540:
  3551   000CA2  0E06               	movlw	6
  3552   000CA4  6037               	cpfslt	change_gear@gear_index^0,c
  3553   000CA6  EF57  F006         	goto	u551
  3554   000CAA  EF59  F006         	goto	u550
  3555   000CAE                     u551:
  3556   000CAE  EF5C  F006         	goto	l1312
  3557   000CB2                     u550:
  3558   000CB2                     
  3559                           ;main.c: 59:     {;main.c: 60:         gear_index++;
  3560   000CB2  2A37               	incf	change_gear@gear_index^0,f,c
  3561                           
  3562                           ;main.c: 61:     }
  3563   000CB4  EF7B  F006         	goto	l116
  3564   000CB8                     l1312:
  3565   000CB8  0E0D               	movlw	13
  3566   000CBA  1802               	xorwf	change_gear@key^0,w,c
  3567   000CBC  A4D8               	btfss	status,2,c
  3568   000CBE  EF63  F006         	goto	u561
  3569   000CC2  EF65  F006         	goto	u560
  3570   000CC6                     u561:
  3571   000CC6  EF70  F006         	goto	l1318
  3572   000CCA                     u560:
  3573   000CCA  5037               	movf	change_gear@gear_index^0,w,c
  3574   000CCC  B4D8               	btfsc	status,2,c
  3575   000CCE  EF6B  F006         	goto	u571
  3576   000CD2  EF6D  F006         	goto	u570
  3577   000CD6                     u571:
  3578   000CD6  EF70  F006         	goto	l1318
  3579   000CDA                     u570:
  3580   000CDA                     
  3581                           ;main.c: 63:     {;main.c: 64:         gear_index--;
  3582   000CDA  0637               	decf	change_gear@gear_index^0,f,c
  3583                           
  3584                           ;main.c: 65:     }
  3585   000CDC  EF7B  F006         	goto	l116
  3586   000CE0                     l1318:
  3587   000CE0  0E0B               	movlw	11
  3588   000CE2  1802               	xorwf	change_gear@key^0,w,c
  3589   000CE4  A4D8               	btfss	status,2,c
  3590   000CE6  EF77  F006         	goto	u581
  3591   000CEA  EF79  F006         	goto	u580
  3592   000CEE                     u581:
  3593   000CEE  EF7B  F006         	goto	l116
  3594   000CF2                     u580:
  3595   000CF2                     
  3596                           ;main.c: 67:     {;main.c: 68:         gear_index = 7;
  3597   000CF2  0E07               	movlw	7
  3598   000CF4  6E37               	movwf	change_gear@gear_index^0,c
  3599   000CF6                     l116:
  3600                           
  3601                           ;main.c: 71:     return gear_index;
  3602   000CF6  5037               	movf	change_gear@gear_index^0,w,c
  3603   000CF8                     l114:
  3604   000CF8  0012               	return		;funcret
  3605   000CFA                     __end_of_change_gear:
  3606                           	callstack 0
  3607                           
  3608 ;; *************** function _read_digital_keypad *****************
  3609 ;; Defined at:
  3610 ;;		line 10 in file "digital_keypad.c"
  3611 ;; Parameters:    Size  Location     Type
  3612 ;;  detection_ty    1    wreg     unsigned char 
  3613 ;; Auto vars:     Size  Location     Type
  3614 ;;  detection_ty    1    0[COMRAM] unsigned char 
  3615 ;; Return value:  Size  Location     Type
  3616 ;;                  1    wreg      unsigned char 
  3617 ;; Registers used:
  3618 ;;		wreg, status,2, status,0
  3619 ;; Tracked objects:
  3620 ;;		On entry : 0/0
  3621 ;;		On exit  : 0/0
  3622 ;;		Unchanged: 0/0
  3623 ;; Data sizes:     COMRAM   BANK0   BANK1   BANK2   BANK3   BANK4   BANK5
  3624 ;;      Params:         0       0       0       0       0       0       0
  3625 ;;      Locals:         1       0       0       0       0       0       0
  3626 ;;      Temps:          0       0       0       0       0       0       0
  3627 ;;      Totals:         1       0       0       0       0       0       0
  3628 ;;Total ram usage:        1 bytes
  3629 ;; Hardware stack levels used: 1
  3630 ;; This function calls:
  3631 ;;		Nothing
  3632 ;; This function is called by:
  3633 ;;		_change_gear
  3634 ;; This function uses a non-reentrant model
  3635 ;;
  3636                           
  3637                           	psect	text12
  3638   000CFA                     __ptext12:
  3639                           	callstack 0
  3640   000CFA                     _read_digital_keypad:
  3641                           	callstack 29
  3642                           
  3643                           ;incstack = 0
  3644                           ;read_digital_keypad@detection_type stored from wreg
  3645   000CFA  6E01               	movwf	read_digital_keypad@detection_type^0,c
  3646   000CFC                     
  3647                           ;digital_keypad.c: 10: unsigned char read_digital_keypad(unsigned char detection_type);d
      +                          igital_keypad.c: 11: {;digital_keypad.c: 12:  static unsigned char once = 1;;digital_key
      +                          pad.c: 14:  if (detection_type == 1)
  3648   000CFC  0401               	decf	read_digital_keypad@detection_type^0,w,c
  3649   000CFE  A4D8               	btfss	status,2,c
  3650   000D00  EF84  F006         	goto	u41
  3651   000D04  EF86  F006         	goto	u40
  3652   000D08                     u41:
  3653   000D08  EFAB  F006         	goto	l1024
  3654   000D0C                     u40:
  3655   000D0C                     
  3656                           ;digital_keypad.c: 15:  {;digital_keypad.c: 16:   if (((PORTC & 0x0F) != 0x0F) && once)
  3657   000D0C  5082               	movf	130,w,c	;volatile
  3658   000D0E  0B0F               	andlw	15
  3659   000D10  0A0F               	xorlw	15
  3660   000D12  B4D8               	btfsc	status,2,c
  3661   000D14  EF8E  F006         	goto	u51
  3662   000D18  EF90  F006         	goto	u50
  3663   000D1C                     u51:
  3664   000D1C  EF9D  F006         	goto	l1020
  3665   000D20                     u50:
  3666   000D20  5038               	movf	read_digital_keypad@once^0,w,c
  3667   000D22  B4D8               	btfsc	status,2,c
  3668   000D24  EF96  F006         	goto	u61
  3669   000D28  EF98  F006         	goto	u60
  3670   000D2C                     u61:
  3671   000D2C  EF9D  F006         	goto	l1020
  3672   000D30                     u60:
  3673   000D30                     
  3674                           ;digital_keypad.c: 17:   {;digital_keypad.c: 18:    once = 0;
  3675   000D30  6A38               	clrf	read_digital_keypad@once^0,c
  3676   000D32                     l1014:
  3677                           
  3678                           ;digital_keypad.c: 20:    return (PORTC & 0x0F);
  3679   000D32  5082               	movf	130,w,c	;volatile
  3680   000D34  0B0F               	andlw	15
  3681   000D36  EFB6  F006         	goto	l178
  3682   000D3A                     l1020:
  3683   000D3A  5082               	movf	130,w,c	;volatile
  3684   000D3C  0B0F               	andlw	15
  3685   000D3E  0A0F               	xorlw	15
  3686   000D40  A4D8               	btfss	status,2,c
  3687   000D42  EFA5  F006         	goto	u71
  3688   000D46  EFA7  F006         	goto	u70
  3689   000D4A                     u71:
  3690   000D4A  EFB5  F006         	goto	l1030
  3691   000D4E                     u70:
  3692   000D4E                     
  3693                           ;digital_keypad.c: 23:   {;digital_keypad.c: 24:    once = 1;
  3694   000D4E  0E01               	movlw	1
  3695   000D50  6E38               	movwf	read_digital_keypad@once^0,c
  3696   000D52  EFB5  F006         	goto	l1030
  3697   000D56                     l1024:
  3698   000D56  5001               	movf	read_digital_keypad@detection_type^0,w,c
  3699   000D58  A4D8               	btfss	status,2,c
  3700   000D5A  EFB1  F006         	goto	u81
  3701   000D5E  EFB3  F006         	goto	u80
  3702   000D62                     u81:
  3703   000D62  EFB5  F006         	goto	l1030
  3704   000D66                     u80:
  3705   000D66  EF99  F006         	goto	l1014
  3706   000D6A                     l1030:
  3707                           
  3708                           ;digital_keypad.c: 32:  return 0xFF;
  3709   000D6A  0EFF               	movlw	255
  3710   000D6C                     l178:
  3711   000D6C  0012               	return		;funcret
  3712   000D6E                     __end_of_read_digital_keypad:
  3713                           	callstack 0
  3714                           
  3715 ;; *************** function _can_transmit *****************
  3716 ;; Defined at:
  3717 ;;		line 52 in file "can.c"
  3718 ;; Parameters:    Size  Location     Type
  3719 ;;  msg_id          2    4[COMRAM] unsigned short 
  3720 ;;  data            1    6[COMRAM] PTR const unsigned char 
  3721 ;;		 -> main@curr_gear(1), main@speed(1), 
  3722 ;;  len             1    7[COMRAM] unsigned char 
  3723 ;; Auto vars:     Size  Location     Type
  3724 ;;  i               2   13[COMRAM] int 
  3725 ;;  ptr             2   11[COMRAM] PTR unsigned char 
  3726 ;;		 -> TXB0D0(1), 
  3727 ;; Return value:  Size  Location     Type
  3728 ;;                  1    wreg      void 
  3729 ;; Registers used:
  3730 ;;		wreg, fsr1l, fsr1h, fsr2l, fsr2h, status,2, status,0, cstack
  3731 ;; Tracked objects:
  3732 ;;		On entry : 0/0
  3733 ;;		On exit  : 0/0
  3734 ;;		Unchanged: 0/0
  3735 ;; Data sizes:     COMRAM   BANK0   BANK1   BANK2   BANK3   BANK4   BANK5
  3736 ;;      Params:         4       0       0       0       0       0       0
  3737 ;;      Locals:         4       0       0       0       0       0       0
  3738 ;;      Temps:          3       0       0       0       0       0       0
  3739 ;;      Totals:        11       0       0       0       0       0       0
  3740 ;;Total ram usage:       11 bytes
  3741 ;; Hardware stack levels used: 1
  3742 ;; Hardware stack levels required when called: 1
  3743 ;; This function calls:
  3744 ;;		_set_msg_id_std
  3745 ;; This function is called by:
  3746 ;;		_main
  3747 ;; This function uses a non-reentrant model
  3748 ;;
  3749                           
  3750                           	psect	text13
  3751   000D6E                     __ptext13:
  3752                           	callstack 0
  3753   000D6E                     _can_transmit:
  3754                           	callstack 29
  3755   000D6E                     
  3756                           ;can.c: 52: void can_transmit(uint16_t msg_id, const uint8_t *data, uint8_t len);can.c: 
      +                          53: {;can.c: 54:     TXB0EIDH = 0x00;
  3757   000D6E  010F               	movlb	15	; () banked
  3758   000D70  6B43               	clrf	67,b	;volatile
  3759                           
  3760                           ;can.c: 55:     TXB0EIDL = 0x00;
  3761   000D72  6B44               	clrf	68,b	;volatile
  3762   000D74                     
  3763                           ; BSR set to: 15
  3764                           ;can.c: 57:     set_msg_id_std(msg_id);
  3765   000D74  C005  F001         	movff	can_transmit@msg_id,set_msg_id_std@id
  3766   000D78  C006  F002         	movff	can_transmit@msg_id+1,set_msg_id_std@id+1
  3767   000D7C  EC87  F007         	call	_set_msg_id_std	;wreg free
  3768   000D80                     
  3769                           ;can.c: 59:     TXB0DLC = len;
  3770   000D80  C008  FF45         	movff	can_transmit@len,3909	;volatile
  3771   000D84                     
  3772                           ;can.c: 61:     uint8_t *ptr = (uint8_t *)&TXB0D0;
  3773   000D84  0E46               	movlw	70
  3774   000D86  6E0C               	movwf	can_transmit@ptr^0,c
  3775   000D88  0E0F               	movlw	15
  3776   000D8A  6E0D               	movwf	(can_transmit@ptr+1)^0,c
  3777   000D8C                     
  3778                           ;can.c: 62:     for (int i = 0; i < len; i++)
  3779   000D8C  6A0F               	clrf	(can_transmit@i+1)^0,c
  3780   000D8E  0E00               	movlw	0
  3781   000D90  6E0E               	movwf	can_transmit@i^0,c
  3782   000D92  EFD9  F006         	goto	l1610
  3783   000D96                     l1606:
  3784                           
  3785                           ;can.c: 63:     {;can.c: 64:         ptr[i] = data[i];
  3786   000D96  5007               	movf	can_transmit@data^0,w,c
  3787   000D98  240E               	addwf	can_transmit@i^0,w,c
  3788   000D9A  6ED9               	movwf	fsr2l,c
  3789   000D9C  6ADA               	clrf	fsr2h,c
  3790   000D9E  500E               	movf	can_transmit@i^0,w,c
  3791   000DA0  240C               	addwf	can_transmit@ptr^0,w,c
  3792   000DA2  6EE1               	movwf	fsr1l,c
  3793   000DA4  500F               	movf	(can_transmit@i+1)^0,w,c
  3794   000DA6  200D               	addwfc	(can_transmit@ptr+1)^0,w,c
  3795   000DA8  6EE2               	movwf	fsr1h,c
  3796   000DAA  CFDF FFE7          	movff	indf2,indf1
  3797   000DAE                     
  3798                           ;can.c: 65:     }
  3799   000DAE  4A0E               	infsnz	can_transmit@i^0,f,c
  3800   000DB0  2A0F               	incf	(can_transmit@i+1)^0,f,c
  3801   000DB2                     l1610:
  3802   000DB2  5008               	movf	can_transmit@len^0,w,c
  3803   000DB4  6E09               	movwf	??_can_transmit^0,c
  3804   000DB6  6A0A               	clrf	(??_can_transmit+1)^0,c
  3805   000DB8  5009               	movf	??_can_transmit^0,w,c
  3806   000DBA  5C0E               	subwf	can_transmit@i^0,w,c
  3807   000DBC  500F               	movf	(can_transmit@i+1)^0,w,c
  3808   000DBE  0A80               	xorlw	128
  3809   000DC0  6E0B               	movwf	(??_can_transmit+2)^0,c
  3810   000DC2  500A               	movf	(??_can_transmit+1)^0,w,c
  3811   000DC4  0A80               	xorlw	128
  3812   000DC6  580B               	subwfb	(??_can_transmit+2)^0,w,c
  3813   000DC8  A0D8               	btfss	status,0,c
  3814   000DCA  EFE9  F006         	goto	u1031
  3815   000DCE  EFEB  F006         	goto	u1030
  3816   000DD2                     u1031:
  3817   000DD2  EFCB  F006         	goto	l1606
  3818   000DD6                     u1030:
  3819   000DD6                     
  3820                           ;can.c: 67:     TXB0REQ = 1;
  3821   000DD6  010F               	movlb	15	; () banked
  3822   000DD8  8740               	bsf	64,3,b	;volatile
  3823   000DDA                     
  3824                           ; BSR set to: 15
  3825   000DDA  0012               	return		;funcret
  3826   000DDC                     __end_of_can_transmit:
  3827                           	callstack 0
  3828                           
  3829 ;; *************** function _set_msg_id_std *****************
  3830 ;; Defined at:
  3831 ;;		line 46 in file "can.c"
  3832 ;; Parameters:    Size  Location     Type
  3833 ;;  id              2    0[COMRAM] unsigned short 
  3834 ;; Auto vars:     Size  Location     Type
  3835 ;;		None
  3836 ;; Return value:  Size  Location     Type
  3837 ;;                  1    wreg      void 
  3838 ;; Registers used:
  3839 ;;		wreg, status,2, status,0
  3840 ;; Tracked objects:
  3841 ;;		On entry : 0/0
  3842 ;;		On exit  : 0/0
  3843 ;;		Unchanged: 0/0
  3844 ;; Data sizes:     COMRAM   BANK0   BANK1   BANK2   BANK3   BANK4   BANK5
  3845 ;;      Params:         2       0       0       0       0       0       0
  3846 ;;      Locals:         0       0       0       0       0       0       0
  3847 ;;      Temps:          2       0       0       0       0       0       0
  3848 ;;      Totals:         4       0       0       0       0       0       0
  3849 ;;Total ram usage:        4 bytes
  3850 ;; Hardware stack levels used: 1
  3851 ;; This function calls:
  3852 ;;		Nothing
  3853 ;; This function is called by:
  3854 ;;		_can_transmit
  3855 ;; This function uses a non-reentrant model
  3856 ;;
  3857                           
  3858                           	psect	text14
  3859   000F0E                     __ptext14:
  3860                           	callstack 0
  3861   000F0E                     _set_msg_id_std:
  3862                           	callstack 29
  3863   000F0E                     
  3864                           ;can.c: 46: static void set_msg_id_std(uint16_t id);can.c: 47: {;can.c: 48:     TXB0SIDL
      +                           = (id & 0x07) << 5;
  3865   000F0E  C001  F003         	movff	set_msg_id_std@id,??_set_msg_id_std
  3866   000F12  0E07               	movlw	7
  3867   000F14  1603               	andwf	??_set_msg_id_std^0,f,c
  3868   000F16  0E05               	movlw	5
  3869   000F18  6E04               	movwf	(??_set_msg_id_std+1)^0,c
  3870   000F1A                     u615:
  3871   000F1A  90D8               	bcf	status,0,c
  3872   000F1C  3603               	rlcf	??_set_msg_id_std^0,f,c
  3873   000F1E  2E04               	decfsz	(??_set_msg_id_std+1)^0,f,c
  3874   000F20  EF8D  F007         	goto	u615
  3875   000F24  5003               	movf	??_set_msg_id_std^0,w,c
  3876   000F26  010F               	movlb	15	; () banked
  3877   000F28  6F42               	movwf	66,b	;volatile
  3878                           
  3879                           ;can.c: 49:     TXB0SIDH = (id >> 3);
  3880   000F2A  C001  F003         	movff	set_msg_id_std@id,??_set_msg_id_std
  3881   000F2E  C002  F004         	movff	set_msg_id_std@id+1,??_set_msg_id_std+1
  3882   000F32  90D8               	bcf	status,0,c
  3883   000F34  3204               	rrcf	(??_set_msg_id_std+1)^0,f,c
  3884   000F36  3203               	rrcf	??_set_msg_id_std^0,f,c
  3885   000F38  90D8               	bcf	status,0,c
  3886   000F3A  3204               	rrcf	(??_set_msg_id_std+1)^0,f,c
  3887   000F3C  3203               	rrcf	??_set_msg_id_std^0,f,c
  3888   000F3E  90D8               	bcf	status,0,c
  3889   000F40  3204               	rrcf	(??_set_msg_id_std+1)^0,f,c
  3890   000F42  3203               	rrcf	??_set_msg_id_std^0,f,c
  3891   000F44  5003               	movf	??_set_msg_id_std^0,w,c
  3892   000F46  6F41               	movwf	65,b	;volatile
  3893   000F48                     
  3894                           ; BSR set to: 15
  3895   000F48  0012               	return		;funcret
  3896   000F4A                     __end_of_set_msg_id_std:
  3897                           	callstack 0
  3898                           
  3899                           	psect	smallconst
  3900   000600                     __psmallconst:
  3901                           	callstack 0
  3902   000600  00                 	db	0
  3903   000601  00                 	db	0	; dummy byte at the end
  3904   000600                     __smallconst    set	__psmallconst
  3905   000600                     __mediumconst   set	__psmallconst
  3906   000000                     __activetblptr  equ	0
  3907                           
  3908                           	psect	rparam
  3909   000001                     ___rparam_used  equ	1
  3910   000000                     ___param_bank   equ	0
  3911   000000                     __Lparam        equ	__Lrparam
  3912   000000                     __Hparam        equ	__Hrparam
  3913                           tosu	equ	0xFFF
  3914                           tosh	equ	0xFFE
  3915                           tosl	equ	0xFFD
  3916                           stkptr	equ	0xFFC
  3917                           pclatu	equ	0xFFB
  3918                           pclath	equ	0xFFA
  3919                           pcl	equ	0xFF9
  3920                           tblptru	equ	0xFF8
  3921                           tblptrh	equ	0xFF7
  3922                           tblptrl	equ	0xFF6
  3923                           tablat	equ	0xFF5
  3924                           prodh	equ	0xFF4
  3925                           prodl	equ	0xFF3
  3926                           indf0	equ	0xFEF
  3927                           postinc0	equ	0xFEE
  3928                           postdec0	equ	0xFED
  3929                           preinc0	equ	0xFEC
  3930                           plusw0	equ	0xFEB
  3931                           fsr0h	equ	0xFEA
  3932                           fsr0l	equ	0xFE9
  3933                           wreg	equ	0xFE8
  3934                           indf1	equ	0xFE7
  3935                           postinc1	equ	0xFE6
  3936                           postdec1	equ	0xFE5
  3937                           preinc1	equ	0xFE4
  3938                           plusw1	equ	0xFE3
  3939                           fsr1h	equ	0xFE2
  3940                           fsr1l	equ	0xFE1
  3941                           bsr	equ	0xFE0
  3942                           indf2	equ	0xFDF
  3943                           postinc2	equ	0xFDE
  3944                           postdec2	equ	0xFDD
  3945                           preinc2	equ	0xFDC
  3946                           plusw2	equ	0xFDB
  3947                           fsr2h	equ	0xFDA
  3948                           fsr2l	equ	0xFD9
  3949                           status	equ	0xFD8

Data Sizes:
    Strings     0
    Constant    0
    Data        1
    BSS         1
    Persistent  0
    Stack       0

Auto Spaces:
    Space          Size  Autos    Used
    COMRAM           95     54      56
    BANK0           160      0       0
    BANK1           256      0       0
    BANK2           256      0       0
    BANK3           256      0       0
    BANK4           256      0       0
    BANK5           256      0       0

Pointer List with Targets:

    can_transmit@data	PTR const unsigned char  size(1) Largest target is 1
		 -> main@curr_gear(COMRAM[1]), main@speed(COMRAM[1]), 

    can_transmit@ptr	PTR unsigned char  size(2) Largest target is 1
		 -> TXB0D0(SFR_2[1]), 


Critical Paths under _main in COMRAM

    _main->_get_speed
    _get_speed->___fltol
    ___fltol->___fldiv
    ___fldiv->___xxtofl
    _change_gear->_read_digital_keypad
    _can_transmit->_set_msg_id_std

Critical Paths under _main in BANK0

    None.

Critical Paths under _main in BANK1

    None.

Critical Paths under _main in BANK2

    None.

Critical Paths under _main in BANK3

    None.

Critical Paths under _main in BANK4

    None.

Critical Paths under _main in BANK5

    None.

Call Graph Tables:

 ---------------------------------------------------------------------------------
 (Depth) Function   	        Calls       Base Space   Used Autos Params    Refs
 ---------------------------------------------------------------------------------
 (0) _main                                                 2     2      0    2219
                                             52 COMRAM     2     2      0
                       _can_transmit
                        _change_gear
                              _delay
                          _get_speed
                        _init_config
 ---------------------------------------------------------------------------------
 (1) _init_config                                          0     0      0       0
                           _init_adc
                           _init_can
                _init_digital_keypad
 ---------------------------------------------------------------------------------
 (2) _init_digital_keypad                                  0     0      0       0
 ---------------------------------------------------------------------------------
 (2) _init_can                                             0     0      0       0
 ---------------------------------------------------------------------------------
 (2) _init_adc                                             0     0      0       0
 ---------------------------------------------------------------------------------
 (1) _get_speed                                            3     3      0    1788
                                             49 COMRAM     3     3      0
                            ___fldiv
                            ___fltol
                           ___xxtofl
                           _read_adc
 ---------------------------------------------------------------------------------
 (2) _read_adc                                             7     5      2      52
                                              0 COMRAM     7     5      2
 ---------------------------------------------------------------------------------
 (2) ___xxtofl                                            14    10      4     337
                                              0 COMRAM    14    10      4
 ---------------------------------------------------------------------------------
 (2) ___fltol                                             10     6      4     230
                                             39 COMRAM    10     6      4
                            ___fldiv (ARG)
                           ___xxtofl (ARG)
 ---------------------------------------------------------------------------------
 (2) ___fldiv                                             25    17      8    1123
                                             14 COMRAM    25    17      8
                           ___xxtofl (ARG)
 ---------------------------------------------------------------------------------
 (1) _delay                                                6     4      2      48
                                              0 COMRAM     4     2      2
 ---------------------------------------------------------------------------------
 (1) _change_gear                                          1     1      0     105
                                              1 COMRAM     1     1      0
                _read_digital_keypad
 ---------------------------------------------------------------------------------
 (2) _read_digital_keypad                                  1     1      0      30
                                              0 COMRAM     1     1      0
 ---------------------------------------------------------------------------------
 (1) _can_transmit                                        11     7      4     230
                                              4 COMRAM    11     7      4
                     _set_msg_id_std
 ---------------------------------------------------------------------------------
 (2) _set_msg_id_std                                       4     2      2      45
                                              0 COMRAM     4     2      2
 ---------------------------------------------------------------------------------
 Estimated maximum stack depth 2
 ---------------------------------------------------------------------------------

 Call Graph Graphs:

 _main (ROOT)
   _can_transmit
     _set_msg_id_std
   _change_gear
     _read_digital_keypad
   _delay
   _get_speed
     ___fldiv
       ___xxtofl (ARG)
     ___fltol
       ___fldiv (ARG)
       ___xxtofl (ARG)
     ___xxtofl
     _read_adc
   _init_config
     _init_adc
     _init_can
     _init_digital_keypad

Address spaces:
Name               Size   Autos  Total    Usage
BIGRAM            1535      0       0      0.0%
BITBIGSFRlh        410      0       0      0.0%
BITBANK5           256      0       0      0.0%
BANK5              256      0       0      0.0%
BITBANK4           256      0       0      0.0%
BANK4              256      0       0      0.0%
BITBANK3           256      0       0      0.0%
BANK3              256      0       0      0.0%
BITBANK2           256      0       0      0.0%
BANK2              256      0       0      0.0%
BITBANK1           256      0       0      0.0%
BANK1              256      0       0      0.0%
BITBIGSFRll        212      0       0      0.0%
BITBANK0           160      0       0      0.0%
BANK0              160      0       0      0.0%
BITBIGSFRh         144      0       0      0.0%
BITCOMRAM           95      0       0      0.0%
COMRAM              95     54      56     58.9%
STACK                0      0       0      0.0%
DATA                 0      0      56      0.0%


Microchip Technology PIC18 Macro Assembler V3.10 build 20250813170317 
Symbol Table                                                                                   Tue Mar 10 09:02:46 2026

                     ___fldiv@aexp 0027                       ___fldiv@bexp 0026  
                     ___fldiv@sign 001F                                 l60 0F48  
                               l53 0EEE                                 l54 0F0C  
                               l65 0DD6                                 l66 0DDA  
                               l94 0FB2                                 _GO 7E11  
                               l99 0E40                                 u10 0EEE  
                               u11 0EEA                                 u40 0D0C  
                               u41 0D08                                 u50 0D20  
                               u51 0D1C                                 u60 0D30  
                               u61 0D2C                                 u70 0D4E  
                               u71 0D4A                                 u80 0D66  
                               u81 0D62                                l113 0C88  
                              l105 0E3A                                l114 0CF8  
                              l116 0CF6                                l125 0F6E  
                              l161 0EA4                                l171 0FBA  
                              l164 0ED0                                l158 0F8A  
                              l178 0D6C                                l592 0C48  
                              l950 09E6                                l953 0B42  
                              l890 08B0                                l882 07B8  
                              l970 0ED6                                l891 089E  
                              l964 0ADA                                l980 0F00  
                              l972 0EDA                                l877 098E  
                              l957 0A7E                                l982 0F04  
                              l974 0EDC                                l879 07F4  
                              l888 083A                                l992 0F70  
                              l984 0F06                                l976 0EF0  
                              l968 0ED2                                l889 0858  
                              l986 0F08                                l978 0EFC  
                              l994 0FB4                                l988 0F0A  
                              u510 0C64                                u511 0C60  
                              u520 0C76                                u521 0C72  
                              u530 0C88                                u531 0C84  
                              u540 0CA2                                u700 0720  
                              u620 0EB2                                u541 0C9E  
                              u701 071C                                u621 0EAE  
                              u550 0CB2                                u710 0794  
                              u630 061C                                u615 0F1A  
                              u551 0CAE                                u711 0790  
                              u631 0618                                u560 0CCA  
                              u800 08AC                                u720 07B6  
                              u640 062E                                u561 0CC6  
                              u801 08A8                                u721 07B2  
                              u641 062A                                u570 0CDA  
                              u810 08C0                                u730 07E0  
                              u650 063E                                u571 0CD6  
                              u811 08BC                                u731 07DC  
                              u651 063A                                u580 0CF2  
                              u820 08DA                                u740 0804  
                              u660 0680                                u900 0BF8  
                              u581 0CEE                                u821 08D6  
                              u741 0800                                u661 067C  
                              u901 0BF4                                u830 0922  
                              u750 081A                                u670 0692  
                              u910 0C18                                u831 091E  
                              u751 0816                                u671 068E  
                              u911 0C14                                u840 0952  
                              u760 0838                                u680 06A2  
                              u920 0C28                                u841 094E  
                              u761 0834                                u681 069E  
                              u921 0C24                                u850 097C  
                              u770 0858                                u690 06E0  
                              u930 09A2                                u851 0978  
                              u771 0854                                u691 06DC  
                              u931 099E                                u780 0868  
                              u860 0B5A                                u940 09B0  
                              u781 0864                                u861 0B56  
                              u941 09AC                                u790 0896  
                              u870 0B8E                                u950 0A0C  
                              u791 0892                                u951 0A08  
                              u880 0BBC                                u960 0A62  
                              u881 0BB8                                u961 0A5E  
                              u890 0BD0                                u970 0AAC  
                              u891 0BCC                                u875 0B84  
                              u971 0AA8                                u980 0ACA  
                              u981 0AC6                                u990 0ADA  
                              u991 0AD6                                wreg 0FE8  
                     ___fltol@exp1 0031                               l1010 0D20  
                             l1012 0D30                               l1020 0D3A  
                             l1022 0D4E                               l1030 0D6A  
                             l1014 0D32                               l1006 0CFC  
                             l1008 0D0C                               l1024 0D56  
                             l1300 0C76                               l1310 0CB2  
                             l1302 0C8A                               l1320 0CF2  
                             l1312 0CB8                               l1400 06A2  
                             l1314 0CCA                               l1306 0C90  
                             l1410 06E0                               l1402 06B2  
                             l1316 0CDA                               l1308 0CA2  
                             l1412 06F0                               l1420 0710  
                             l1404 06B4                               l1318 0CE0  
                             l1430 074E                               l1422 0720  
                             l1414 06F8                               l1406 06BA  
                             l1600 0D80                               l1440 0794  
                             l1432 075E                               l1424 0720  
                             l1416 06FC                               l1408 06CA  
                             l1520 0BAE                               l1512 0B6E  
                             l1360 0E8E                               l1280 0FAE  
            ??_read_digital_keypad 0001                               l1610 0DB2  
                             l1602 0D84                               l1450 07E2  
                             l1442 07A8                               l1434 076E  
                             l1370 0602                               l1530 0BDE  
                             l1522 0BBC                               l1514 0B98  
                             l1506 0B44                               l1362 0EA2  
                             l1604 0D8C                               l1620 0F54  
                             l1460 082A                               l1452 07F2  
                             l1444 07B6                               l1436 077E  
                             l1428 0734                               l1380 063E  
                             l1372 060E                               l1540 0C08  
                             l1532 0BE8                               l1516 0B9A  
                             l1508 0B5A                               l1364 0EB2  
                             l1612 0DDC                               l1276 0FA6  
                             l1358 0F0E                               l1606 0D96  
                             l1294 0C4A                               l1622 0F58  
                             l1462 0838                               l1454 0804  
                             l1446 07C2                               l1438 0784  
                             l1390 066C                               l1382 064E  
                             l1374 061C                               l1542 0C18  
                             l1518 0BAA                               l1550 0992  
                             l1366 0EC8                               l1614 0E38  
                             l1278 0FAA                               l1630 0E62  
                             l1608 0DAE                               l1296 0C52  
                             l1472 08C0                               l1480 0908  
                             l1456 081A                               l1464 084A  
                             l1448 07E0                               l1392 0672  
                             l1384 0650                               l1376 061E  
                             l1544 0C28                               l1528 0BD4  
                             l1552 09A2                               l1632 0E68  
                             l1624 0E3C                               l1298 0C64  
                             l1618 0F4A                               l1490 096A  
                             l1482 0922                               l1474 08CC  
                             l1466 0868                               l1458 0820  
                             l1394 0680                               l1378 062E  
                             l1386 0656                               l1546 0C38  
                             l1538 0BFC                               l1570 0A68  
                             l1562 0A20                               l1554 09B0  
                             l1626 0E46                               l1492 096E  
                             l1484 0938                               l1476 08DA  
                             l1468 0896                               l1396 0682  
                             l1388 0666                               l1580 0AE8  
                             l1572 0A74                               l1564 0A28  
                             l1556 09F6                               l1628 0E58  
                             l1494 097C                               l1486 0952  
                             l1478 0904                               l1398 0692  
                             l1590 0B30                               l1582 0AEA  
                             l1574 0AB0                               l1566 0A34  
                             l1558 0A0C                               l1496 0982  
                             l1488 0968                               l1592 0B32  
                             l1584 0AEE                               l1576 0ABC  
                             l1568 0A66                               l1498 0984  
                             l1586 0B12                               l1578 0ACA  
                             l1596 0D6E                               l1588 0B22  
                             l1598 0D74                               _ADFM 7E07  
                             _ADON 7E10                               u1000 0AE8  
                             u1001 0AE4                               u1010 0B22  
                             u1011 0B1E                               u1020 0B30  
                             u1021 0B2C                               u1030 0DD6  
                             u1031 0DD2                               u1040 0F6E  
                             u1041 0F6A                               _main 0E3C  
                             fsr2h 0FDA                               indf1 0FE7  
                             indf2 0FDF                               fsr1l 0FE1  
                             fsr2l 0FD9                               start 2FFC  
            change_gear@gear_index 0037                    ___fldiv@new_exp 0020  
                     ___param_bank 0000                      ___fltol@sign1 0030  
                            _ADCS0 7E00                              _ADCS1 7E01  
                            _ADCS2 7E02                              ?_main 0001  
                  __end_of___fldiv 0990                              _ACQT0 7E03  
                            _ACQT1 7E04                              _ACQT2 7E05  
                  __end_of___fltol 0C4A                       ?_init_config 0001  
                            _VCFG0 7E0C                              _VCFG1 7E0D  
                            _PORTC 0F82                              _TRISC 0F94  
                            _delay 0F4A                              tablat 0FF5  
                            status 0FD8                    __initialization 0F8C  
                     __end_of_main 0E8C                             ??_main 0035  
                    __activetblptr 0000                             ?_delay 0001  
                           _ADCON0 0FC2                             _CANCON 0F6F  
                           _ADRESH 0FC4                             _ADRESL 0FC3  
                           _GODONE 7E11                             _RXB0D0 0F66  
                           _RXB0IF 7D20                             _TXB0D0 0F46  
                           _TRISB2 7C9A                             _TRISB3 7C9B  
                    main@curr_gear 0036                   __end_of___xxtofl 0B44  
      __end_of_init_digital_keypad 0FBC                          ??___fldiv 0017  
                        ??___fltol 002C                      can_transmit@i 000E  
                 __end_of_init_adc 0F8C                   __end_of_init_can 0F0E  
                 __end_of_read_adc 0ED2                             delay@i 0003  
                           isa$std 0001                       __pdataCOMRAM 0038  
                     __mediumconst 0600                             tblptrh 0FF7  
                           tblptrl 0FF6                             tblptru 0FF8  
                     _can_transmit 0D6E                       ___xxtofl@arg 000B  
                     ___xxtofl@exp 000A                       ___xxtofl@val 0001  
                       __accesstop 0060            __end_of__initialization 0FA0  
                    ___rparam_used 0001                         ___fltol@f1 0028  
                   __pcstackCOMRAM 0001                   set_msg_id_std@id 0001  
                    __end_of_delay 0F70                            ??_delay 0003  
                          _ECANCON 0F77                            _CANSTAT 0F6E  
                          _BRGCON1 0F70                            _BRGCON2 0F71  
                          _BRGCON3 0F72        __end_of_read_digital_keypad 0D6E  
                        ?___xxtofl 0001                            _RXB0DLC 0F65  
                          _RXB0CON 0F60                            _RXB0FUL 7B07  
                          _TXB0DLC 0F45                            _TXB0REQ 7A03  
                          _RXFCON0 0DD4                     get_speed@speed 0034  
                        ?_init_adc 0001                          ?_init_can 0001  
                        ?_read_adc 0001                            __Hparam 0000  
                          __Lparam 0000                  __end_of_get_speed 0E3C  
                          ___fldiv 0602                            ___fltol 0B44  
                     __psmallconst 0600                            __pcinit 0F8C  
                          __ramtop 0600                            __ptext0 0E3C  
                          __ptext1 0FA6                            __ptext2 0FB4  
                          __ptext3 0ED2                            __ptext4 0F70  
                          __ptext5 0DDC                            __ptext6 0E8C  
                          __ptext7 0990                            __ptext8 0B44  
                          __ptext9 0602                      ??_change_gear 0002  
                       ??___xxtofl 0005               end_of_initialization 0FA0  
                       ??_init_adc 0001                         ??_init_can 0001  
                       ??_read_adc 0003                    read_adc@channel 0007  
                 get_speed@adc_val 0032                      ___xxtofl@sign 0009  
                  read_adc@reg_val 0005                        ___fldiv@grs 0022  
                      ___fldiv@rem 001B                __end_of_change_gear 0CFA  
                   _set_msg_id_std 0F0E                      __pidataCOMRAM 3000  
              start_initialization 0F8C             __end_of_set_msg_id_std 0F4A  
                   change_gear@key 0002                      ??_init_config 0001  
                        ___fldiv@a 0013                          ___fldiv@b 000F  
                      __pbssCOMRAM 0037                        _change_gear 0C4A  
                  ?_set_msg_id_std 0001                           ?___fldiv 000F  
                 can_transmit@data 0007                           ?___fltol 0028  
                        _get_speed 0DDC                        __smallconst 0600  
               can_transmit@msg_id 0005                __end_of_init_config 0FB4  
                         _RXB0SIDH 0F61                           _RXB0SIDL 0F62  
                         _TXB0EIDH 0F43                           _TXB0EIDL 0F44  
                         _TXB0SIDH 0F41                           _TXB0SIDL 0F42  
                       ?_get_speed 0001  read_digital_keypad@detection_type 0001  
                        main@speed 0035                      ?_can_transmit 0005  
              _init_digital_keypad 0FB4                           __Hrparam 0000  
                         __Lrparam 0000               ?_init_digital_keypad 0001  
                      _init_config 0FA6                           ___xxtofl 0990  
                   ??_can_transmit 0009                           __ptext10 0F4A  
                         __ptext11 0C4A                           __ptext12 0CFA  
                         __ptext13 0D6E                           __ptext14 0F0E  
                  can_transmit@len 0008                    can_transmit@ptr 000C  
                      delay@factor 0001                           _init_adc 0F70  
                         _init_can 0ED2                           _read_adc 0E8C  
          read_digital_keypad@once 0038                           isa$xinst 0000  
            ??_init_digital_keypad 0001                        ??_get_speed 0032  
                      _RXB0CONbits 0F60                   ??_set_msg_id_std 0003  
                     ?_change_gear 0001                _read_digital_keypad 0CFA  
             ?_read_digital_keypad 0001               __end_of_can_transmit 0DDC  
